MODULE Linux x86_64 27CA84816C29B3E26B44875339EEB8020 myUbuntuCrasher.out
INFO CODE_ID 8184CA27296CE2B36B44875339EEB8023C8CC5CE
FUNC 3830 59 0 main
FUNC 3890 9fc 0 initializeCrashpad()
FUNC 4290 10 0 crash()
FUNC 42a0 6a 0 getExecutableDir[abi:cxx11]()
FUNC 4310 84 0 std::__cxx11::basic_string<char, std::char_traits<char>, std::allocator<char> > std::operator+<char, std::char_traits<char>, std::allocator<char> >(std::__cxx11::basic_string<char, std::char_traits<char>, std::allocator<char> > const&, char const*)
FUNC 43a0 1b 0 std::map<std::__cxx11::basic_string<char, std::char_traits<char>, std::allocator<char> >, std::__cxx11::basic_string<char, std::char_traits<char>, std::allocator<char> >, std::less<std::__cxx11::basic_string<char, std::char_traits<char>, std::allocator<char> > >, std::allocator<std::pair<std::__cxx11::basic_string<char, std::char_traits<char>, std::allocator<char> > const, std::__cxx11::basic_string<char, std::char_traits<char>, std::allocator<char> > > > >::map()
FUNC 43c0 f7 0 std::map<std::__cxx11::basic_string<char, std::char_traits<char>, std::allocator<char> >, std::__cxx11::basic_string<char, std::char_traits<char>, std::allocator<char> >, std::less<std::__cxx11::basic_string<char, std::char_traits<char>, std::allocator<char> > >, std::allocator<std::pair<std::__cxx11::basic_string<char, std::char_traits<char>, std::allocator<char> > const, std::__cxx11::basic_string<char, std::char_traits<char>, std::allocator<char> > > > >::operator[](std::__cxx11::basic_string<char, std::char_traits<char>, std::allocator<char> >&&)
FUNC 44c0 2d 0 std::vector<std::__cxx11::basic_string<char, std::char_traits<char>, std::allocator<char> >, std::allocator<std::__cxx11::basic_string<char, std::char_traits<char>, std::allocator<char> > > >::vector()
FUNC 44f0 36 0 std::vector<std::__cxx11::basic_string<char, std::char_traits<char>, std::allocator<char> >, std::allocator<std::__cxx11::basic_string<char, std::char_traits<char>, std::allocator<char> > > >::push_back(std::__cxx11::basic_string<char, std::char_traits<char>, std::allocator<char> >&&)
FUNC 4530 26 0 bool std::operator==<crashpad::CrashReportDatabase, std::default_delete<crashpad::CrashReportDatabase> >(std::unique_ptr<crashpad::CrashReportDatabase, std::default_delete<crashpad::CrashReportDatabase> > const&, decltype(nullptr))
FUNC 4560 1b 0 std::unique_ptr<crashpad::CrashReportDatabase, std::default_delete<crashpad::CrashReportDatabase> >::operator->() const
FUNC 4580 78 0 std::unique_ptr<crashpad::CrashReportDatabase, std::default_delete<crashpad::CrashReportDatabase> >::~unique_ptr()
FUNC 4600 6d 0 std::vector<std::__cxx11::basic_string<char, std::char_traits<char>, std::allocator<char> >, std::allocator<std::__cxx11::basic_string<char, std::char_traits<char>, std::allocator<char> > > >::~vector()
FUNC 4670 1b 0 std::map<std::__cxx11::basic_string<char, std::char_traits<char>, std::allocator<char> >, std::__cxx11::basic_string<char, std::char_traits<char>, std::allocator<char> >, std::less<std::__cxx11::basic_string<char, std::char_traits<char>, std::allocator<char> > >, std::allocator<std::pair<std::__cxx11::basic_string<char, std::char_traits<char>, std::allocator<char> > const, std::__cxx11::basic_string<char, std::char_traits<char>, std::allocator<char> > > > >::~map()
FUNC 4690 1b 0 std::_Rb_tree<std::__cxx11::basic_string<char, std::char_traits<char>, std::allocator<char> >, std::pair<std::__cxx11::basic_string<char, std::char_traits<char>, std::allocator<char> > const, std::__cxx11::basic_string<char, std::char_traits<char>, std::allocator<char> > >, std::_Select1st<std::pair<std::__cxx11::basic_string<char, std::char_traits<char>, std::allocator<char> > const, std::__cxx11::basic_string<char, std::char_traits<char>, std::allocator<char> > > >, std::less<std::__cxx11::basic_string<char, std::char_traits<char>, std::allocator<char> > >, std::allocator<std::pair<std::__cxx11::basic_string<char, std::char_traits<char>, std::allocator<char> > const, std::__cxx11::basic_string<char, std::char_traits<char>, std::allocator<char> > > > >::_Rb_tree()
FUNC 46b0 41 0 std::_Rb_tree<std::__cxx11::basic_string<char, std::char_traits<char>, std::allocator<char> >, std::pair<std::__cxx11::basic_string<char, std::char_traits<char>, std::allocator<char> > const, std::__cxx11::basic_string<char, std::char_traits<char>, std::allocator<char> > >, std::_Select1st<std::pair<std::__cxx11::basic_string<char, std::char_traits<char>, std::allocator<char> > const, std::__cxx11::basic_string<char, std::char_traits<char>, std::allocator<char> > > >, std::less<std::__cxx11::basic_string<char, std::char_traits<char>, std::allocator<char> > >, std::allocator<std::pair<std::__cxx11::basic_string<char, std::char_traits<char>, std::allocator<char> > const, std::__cxx11::basic_string<char, std::char_traits<char>, std::allocator<char> > > > >::_Rb_tree_impl<std::less<std::__cxx11::basic_string<char, std::char_traits<char>, std::allocator<char> > >, true>::_Rb_tree_impl()
FUNC 4700 1b 0 std::allocator<std::_Rb_tree_node<std::pair<std::__cxx11::basic_string<char, std::char_traits<char>, std::allocator<char> > const, std::__cxx11::basic_string<char, std::char_traits<char>, std::allocator<char> > > > >::allocator()
FUNC 4720 a 0 std::_Rb_tree_key_compare<std::less<std::__cxx11::basic_string<char, std::char_traits<char>, std::allocator<char> > > >::_Rb_tree_key_compare()
FUNC 4730 33 0 std::_Rb_tree_header::_Rb_tree_header()
FUNC 4770 a 0 __gnu_cxx::new_allocator<std::_Rb_tree_node<std::pair<std::__cxx11::basic_string<char, std::char_traits<char>, std::allocator<char> > const, std::__cxx11::basic_string<char, std::char_traits<char>, std::allocator<char> > > > >::new_allocator()
FUNC 4780 26 0 std::_Rb_tree_header::_M_reset()
FUNC 47c0 54 0 std::_Rb_tree<std::__cxx11::basic_string<char, std::char_traits<char>, std::allocator<char> >, std::pair<std::__cxx11::basic_string<char, std::char_traits<char>, std::allocator<char> > const, std::__cxx11::basic_string<char, std::char_traits<char>, std::allocator<char> > >, std::_Select1st<std::pair<std::__cxx11::basic_string<char, std::char_traits<char>, std::allocator<char> > const, std::__cxx11::basic_string<char, std::char_traits<char>, std::allocator<char> > > >, std::less<std::__cxx11::basic_string<char, std::char_traits<char>, std::allocator<char> > >, std::allocator<std::pair<std::__cxx11::basic_string<char, std::char_traits<char>, std::allocator<char> > const, std::__cxx11::basic_string<char, std::char_traits<char>, std::allocator<char> > > > >::~_Rb_tree()
FUNC 4820 6b 0 std::_Rb_tree<std::__cxx11::basic_string<char, std::char_traits<char>, std::allocator<char> >, std::pair<std::__cxx11::basic_string<char, std::char_traits<char>, std::allocator<char> > const, std::__cxx11::basic_string<char, std::char_traits<char>, std::allocator<char> > >, std::_Select1st<std::pair<std::__cxx11::basic_string<char, std::char_traits<char>, std::allocator<char> > const, std::__cxx11::basic_string<char, std::char_traits<char>, std::allocator<char> > > >, std::less<std::__cxx11::basic_string<char, std::char_traits<char>, std::allocator<char> > >, std::allocator<std::pair<std::__cxx11::basic_string<char, std::char_traits<char>, std::allocator<char> > const, std::__cxx11::basic_string<char, std::char_traits<char>, std::allocator<char> > > > >::_M_erase(std::_Rb_tree_node<std::pair<std::__cxx11::basic_string<char, std::char_traits<char>, std::allocator<char> > const, std::__cxx11::basic_string<char, std::char_traits<char>, std::allocator<char> > > >*)
FUNC 4890 15 0 std::_Rb_tree<std::__cxx11::basic_string<char, std::char_traits<char>, std::allocator<char> >, std::pair<std::__cxx11::basic_string<char, std::char_traits<char>, std::allocator<char> > const, std::__cxx11::basic_string<char, std::char_traits<char>, std::allocator<char> > >, std::_Select1st<std::pair<std::__cxx11::basic_string<char, std::char_traits<char>, std::allocator<char> > const, std::__cxx11::basic_string<char, std::char_traits<char>, std::allocator<char> > > >, std::less<std::__cxx11::basic_string<char, std::char_traits<char>, std::allocator<char> > >, std::allocator<std::pair<std::__cxx11::basic_string<char, std::char_traits<char>, std::allocator<char> > const, std::__cxx11::basic_string<char, std::char_traits<char>, std::allocator<char> > > > >::_M_begin()
FUNC 48b0 1b 0 std::_Rb_tree<std::__cxx11::basic_string<char, std::char_traits<char>, std::allocator<char> >, std::pair<std::__cxx11::basic_string<char, std::char_traits<char>, std::allocator<char> > const, std::__cxx11::basic_string<char, std::char_traits<char>, std::allocator<char> > >, std::_Select1st<std::pair<std::__cxx11::basic_string<char, std::char_traits<char>, std::allocator<char> > const, std::__cxx11::basic_string<char, std::char_traits<char>, std::allocator<char> > > >, std::less<std::__cxx11::basic_string<char, std::char_traits<char>, std::allocator<char> > >, std::allocator<std::pair<std::__cxx11::basic_string<char, std::char_traits<char>, std::allocator<char> > const, std::__cxx11::basic_string<char, std::char_traits<char>, std::allocator<char> > > > >::_Rb_tree_impl<std::less<std::__cxx11::basic_string<char, std::char_traits<char>, std::allocator<char> > >, true>::~_Rb_tree_impl()
FUNC 48d0 15 0 std::_Rb_tree<std::__cxx11::basic_string<char, std::char_traits<char>, std::allocator<char> >, std::pair<std::__cxx11::basic_string<char, std::char_traits<char>, std::allocator<char> > const, std::__cxx11::basic_string<char, std::char_traits<char>, std::allocator<char> > >, std::_Select1st<std::pair<std::__cxx11::basic_string<char, std::char_traits<char>, std::allocator<char> > const, std::__cxx11::basic_string<char, std::char_traits<char>, std::allocator<char> > > >, std::less<std::__cxx11::basic_string<char, std::char_traits<char>, std::allocator<char> > >, std::allocator<std::pair<std::__cxx11::basic_string<char, std::char_traits<char>, std::allocator<char> > const, std::__cxx11::basic_string<char, std::char_traits<char>, std::allocator<char> > > > >::_S_right(std::_Rb_tree_node_base*)
FUNC 48f0 15 0 std::_Rb_tree<std::__cxx11::basic_string<char, std::char_traits<char>, std::allocator<char> >, std::pair<std::__cxx11::basic_string<char, std::char_traits<char>, std::allocator<char> > const, std::__cxx11::basic_string<char, std::char_traits<char>, std::allocator<char> > >, std::_Select1st<std::pair<std::__cxx11::basic_string<char, std::char_traits<char>, std::allocator<char> > const, std::__cxx11::basic_string<char, std::char_traits<char>, std::allocator<char> > > >, std::less<std::__cxx11::basic_string<char, std::char_traits<char>, std::allocator<char> > >, std::allocator<std::pair<std::__cxx11::basic_string<char, std::char_traits<char>, std::allocator<char> > const, std::__cxx11::basic_string<char, std::char_traits<char>, std::allocator<char> > > > >::_S_left(std::_Rb_tree_node_base*)
FUNC 4910 42 0 std::_Rb_tree<std::__cxx11::basic_string<char, std::char_traits<char>, std::allocator<char> >, std::pair<std::__cxx11::basic_string<char, std::char_traits<char>, std::allocator<char> > const, std::__cxx11::basic_string<char, std::char_traits<char>, std::allocator<char> > >, std::_Select1st<std::pair<std::__cxx11::basic_string<char, std::char_traits<char>, std::allocator<char> > const, std::__cxx11::basic_string<char, std::char_traits<char>, std::allocator<char> > > >, std::less<std::__cxx11::basic_string<char, std::char_traits<char>, std::allocator<char> > >, std::allocator<std::pair<std::__cxx11::basic_string<char, std::char_traits<char>, std::allocator<char> > const, std::__cxx11::basic_string<char, std::char_traits<char>, std::allocator<char> > > > >::_M_drop_node(std::_Rb_tree_node<std::pair<std::__cxx11::basic_string<char, std::char_traits<char>, std::allocator<char> > const, std::__cxx11::basic_string<char, std::char_traits<char>, std::allocator<char> > > >*)
FUNC 4960 54 0 std::_Rb_tree<std::__cxx11::basic_string<char, std::char_traits<char>, std::allocator<char> >, std::pair<std::__cxx11::basic_string<char, std::char_traits<char>, std::allocator<char> > const, std::__cxx11::basic_string<char, std::char_traits<char>, std::allocator<char> > >, std::_Select1st<std::pair<std::__cxx11::basic_string<char, std::char_traits<char>, std::allocator<char> > const, std::__cxx11::basic_string<char, std::char_traits<char>, std::allocator<char> > > >, std::less<std::__cxx11::basic_string<char, std::char_traits<char>, std::allocator<char> > >, std::allocator<std::pair<std::__cxx11::basic_string<char, std::char_traits<char>, std::allocator<char> > const, std::__cxx11::basic_string<char, std::char_traits<char>, std::allocator<char> > > > >::_M_destroy_node(std::_Rb_tree_node<std::pair<std::__cxx11::basic_string<char, std::char_traits<char>, std::allocator<char> > const, std::__cxx11::basic_string<char, std::char_traits<char>, std::allocator<char> > > >*)
FUNC 49c0 44 0 std::_Rb_tree<std::__cxx11::basic_string<char, std::char_traits<char>, std::allocator<char> >, std::pair<std::__cxx11::basic_string<char, std::char_traits<char>, std::allocator<char> > const, std::__cxx11::basic_string<char, std::char_traits<char>, std::allocator<char> > >, std::_Select1st<std::pair<std::__cxx11::basic_string<char, std::char_traits<char>, std::allocator<char> > const, std::__cxx11::basic_string<char, std::char_traits<char>, std::allocator<char> > > >, std::less<std::__cxx11::basic_string<char, std::char_traits<char>, std::allocator<char> > >, std::allocator<std::pair<std::__cxx11::basic_string<char, std::char_traits<char>, std::allocator<char> > const, std::__cxx11::basic_string<char, std::char_traits<char>, std::allocator<char> > > > >::_M_put_node(std::_Rb_tree_node<std::pair<std::__cxx11::basic_string<char, std::char_traits<char>, std::allocator<char> > const, std::__cxx11::basic_string<char, std::char_traits<char>, std::allocator<char> > > >*)
FUNC 4a10 2e 0 void std::allocator_traits<std::allocator<std::_Rb_tree_node<std::pair<std::__cxx11::basic_string<char, std::char_traits<char>, std::allocator<char> > const, std::__cxx11::basic_string<char, std::char_traits<char>, std::allocator<char> > > > > >::destroy<std::pair<std::__cxx11::basic_string<char, std::char_traits<char>, std::allocator<char> > const, std::__cxx11::basic_string<char, std::char_traits<char>, std::allocator<char> > > >(std::allocator<std::_Rb_tree_node<std::pair<std::__cxx11::basic_string<char, std::char_traits<char>, std::allocator<char> > const, std::__cxx11::basic_string<char, std::char_traits<char>, std::allocator<char> > > > >&, std::pair<std::__cxx11::basic_string<char, std::char_traits<char>, std::allocator<char> > const, std::__cxx11::basic_string<char, std::char_traits<char>, std::allocator<char> > >*)
FUNC 4a40 11 0 std::_Rb_tree<std::__cxx11::basic_string<char, std::char_traits<char>, std::allocator<char> >, std::pair<std::__cxx11::basic_string<char, std::char_traits<char>, std::allocator<char> > const, std::__cxx11::basic_string<char, std::char_traits<char>, std::allocator<char> > >, std::_Select1st<std::pair<std::__cxx11::basic_string<char, std::char_traits<char>, std::allocator<char> > const, std::__cxx11::basic_string<char, std::char_traits<char>, std::allocator<char> > > >, std::less<std::__cxx11::basic_string<char, std::char_traits<char>, std::allocator<char> > >, std::allocator<std::pair<std::__cxx11::basic_string<char, std::char_traits<char>, std::allocator<char> > const, std::__cxx11::basic_string<char, std::char_traits<char>, std::allocator<char> > > > >::_M_get_Node_allocator()
FUNC 4a60 1f 0 std::_Rb_tree_node<std::pair<std::__cxx11::basic_string<char, std::char_traits<char>, std::allocator<char> > const, std::__cxx11::basic_string<char, std::char_traits<char>, std::allocator<char> > > >::_M_valptr()
FUNC 4a80 1f 0 void __gnu_cxx::new_allocator<std::_Rb_tree_node<std::pair<std::__cxx11::basic_string<char, std::char_traits<char>, std::allocator<char> > const, std::__cxx11::basic_string<char, std::char_traits<char>, std::allocator<char> > > > >::destroy<std::pair<std::__cxx11::basic_string<char, std::char_traits<char>, std::allocator<char> > const, std::__cxx11::basic_string<char, std::char_traits<char>, std::allocator<char> > > >(std::pair<std::__cxx11::basic_string<char, std::char_traits<char>, std::allocator<char> > const, std::__cxx11::basic_string<char, std::char_traits<char>, std::allocator<char> > >*)
FUNC 4aa0 32 0 std::pair<std::__cxx11::basic_string<char, std::char_traits<char>, std::allocator<char> > const, std::__cxx11::basic_string<char, std::char_traits<char>, std::allocator<char> > >::~pair()
FUNC 4ae0 1b 0 __gnu_cxx::__aligned_membuf<std::pair<std::__cxx11::basic_string<char, std::char_traits<char>, std::allocator<char> > const, std::__cxx11::basic_string<char, std::char_traits<char>, std::allocator<char> > > >::_M_ptr()
FUNC 4b00 11 0 __gnu_cxx::__aligned_membuf<std::pair<std::__cxx11::basic_string<char, std::char_traits<char>, std::allocator<char> > const, std::__cxx11::basic_string<char, std::char_traits<char>, std::allocator<char> > > >::_M_addr()
FUNC 4b20 36 0 std::allocator_traits<std::allocator<std::_Rb_tree_node<std::pair<std::__cxx11::basic_string<char, std::char_traits<char>, std::allocator<char> > const, std::__cxx11::basic_string<char, std::char_traits<char>, std::allocator<char> > > > > >::deallocate(std::allocator<std::_Rb_tree_node<std::pair<std::__cxx11::basic_string<char, std::char_traits<char>, std::allocator<char> > const, std::__cxx11::basic_string<char, std::char_traits<char>, std::allocator<char> > > > >&, std::_Rb_tree_node<std::pair<std::__cxx11::basic_string<char, std::char_traits<char>, std::allocator<char> > const, std::__cxx11::basic_string<char, std::char_traits<char>, std::allocator<char> > > >*, unsigned long)
FUNC 4b60 26 0 __gnu_cxx::new_allocator<std::_Rb_tree_node<std::pair<std::__cxx11::basic_string<char, std::char_traits<char>, std::allocator<char> > const, std::__cxx11::basic_string<char, std::char_traits<char>, std::allocator<char> > > > >::deallocate(std::_Rb_tree_node<std::pair<std::__cxx11::basic_string<char, std::char_traits<char>, std::allocator<char> > const, std::__cxx11::basic_string<char, std::char_traits<char>, std::allocator<char> > > >*, unsigned long)
FUNC 4b90 1b 0 std::allocator<std::_Rb_tree_node<std::pair<std::__cxx11::basic_string<char, std::char_traits<char>, std::allocator<char> > const, std::__cxx11::basic_string<char, std::char_traits<char>, std::allocator<char> > > > >::~allocator()
FUNC 4bb0 a 0 __gnu_cxx::new_allocator<std::_Rb_tree_node<std::pair<std::__cxx11::basic_string<char, std::char_traits<char>, std::allocator<char> > const, std::__cxx11::basic_string<char, std::char_traits<char>, std::allocator<char> > > > >::~new_allocator()
FUNC 4bc0 2b 0 std::map<std::__cxx11::basic_string<char, std::char_traits<char>, std::allocator<char> >, std::__cxx11::basic_string<char, std::char_traits<char>, std::allocator<char> >, std::less<std::__cxx11::basic_string<char, std::char_traits<char>, std::allocator<char> > >, std::allocator<std::pair<std::__cxx11::basic_string<char, std::char_traits<char>, std::allocator<char> > const, std::__cxx11::basic_string<char, std::char_traits<char>, std::allocator<char> > > > >::lower_bound(std::__cxx11::basic_string<char, std::char_traits<char>, std::allocator<char> > const&)
FUNC 4bf0 24 0 std::_Rb_tree_iterator<std::pair<std::__cxx11::basic_string<char, std::char_traits<char>, std::allocator<char> > const, std::__cxx11::basic_string<char, std::char_traits<char>, std::allocator<char> > > >::operator==(std::_Rb_tree_iterator<std::pair<std::__cxx11::basic_string<char, std::char_traits<char>, std::allocator<char> > const, std::__cxx11::basic_string<char, std::char_traits<char>, std::allocator<char> > > > const&) const
FUNC 4c20 23 0 std::map<std::__cxx11::basic_string<char, std::char_traits<char>, std::allocator<char> >, std::__cxx11::basic_string<char, std::char_traits<char>, std::allocator<char> >, std::less<std::__cxx11::basic_string<char, std::char_traits<char>, std::allocator<char> > >, std::allocator<std::pair<std::__cxx11::basic_string<char, std::char_traits<char>, std::allocator<char> > const, std::__cxx11::basic_string<char, std::char_traits<char>, std::allocator<char> > > > >::end()
FUNC 4c50 1b 0 std::map<std::__cxx11::basic_string<char, std::char_traits<char>, std::allocator<char> >, std::__cxx11::basic_string<char, std::char_traits<char>, std::allocator<char> >, std::less<std::__cxx11::basic_string<char, std::char_traits<char>, std::allocator<char> > >, std::allocator<std::pair<std::__cxx11::basic_string<char, std::char_traits<char>, std::allocator<char> > const, std::__cxx11::basic_string<char, std::char_traits<char>, std::allocator<char> > > > >::key_comp() const
FUNC 4c70 2c 0 std::less<std::__cxx11::basic_string<char, std::char_traits<char>, std::allocator<char> > >::operator()(std::__cxx11::basic_string<char, std::char_traits<char>, std::allocator<char> > const&, std::__cxx11::basic_string<char, std::char_traits<char>, std::allocator<char> > const&) const
FUNC 4ca0 38 0 std::_Rb_tree_iterator<std::pair<std::__cxx11::basic_string<char, std::char_traits<char>, std::allocator<char> > const, std::__cxx11::basic_string<char, std::char_traits<char>, std::allocator<char> > > >::operator*() const
FUNC 4ce0 17f 0 std::_Rb_tree_iterator<std::pair<std::__cxx11::basic_string<char, std::char_traits<char>, std::allocator<char> > const, std::__cxx11::basic_string<char, std::char_traits<char>, std::allocator<char> > > > std::_Rb_tree<std::__cxx11::basic_string<char, std::char_traits<char>, std::allocator<char> >, std::pair<std::__cxx11::basic_string<char, std::char_traits<char>, std::allocator<char> > const, std::__cxx11::basic_string<char, std::char_traits<char>, std::allocator<char> > >, std::_Select1st<std::pair<std::__cxx11::basic_string<char, std::char_traits<char>, std::allocator<char> > const, std::__cxx11::basic_string<char, std::char_traits<char>, std::allocator<char> > > >, std::less<std::__cxx11::basic_string<char, std::char_traits<char>, std::allocator<char> > >, std::allocator<std::pair<std::__cxx11::basic_string<char, std::char_traits<char>, std::allocator<char> > const, std::__cxx11::basic_string<char, std::char_traits<char>, std::allocator<char> > > > >::_M_emplace_hint_unique<std::piecewise_construct_t const&, std::tuple<std::__cxx11::basic_string<char, std::char_traits<char>, std::allocator<char> >&&>, std::tuple<> >(std::_Rb_tree_const_iterator<std::pair<std::__cxx11::basic_string<char, std::char_traits<char>, std::allocator<char> > const, std::__cxx11::basic_string<char, std::char_traits<char>, std::allocator<char> > > >, std::piecewise_construct_t const&, std::tuple<std::__cxx11::basic_string<char, std::char_traits<char>, std::allocator<char> >&&>&&, std::tuple<>&&)
FUNC 4e60 1c 0 std::_Rb_tree_const_iterator<std::pair<std::__cxx11::basic_string<char, std::char_traits<char>, std::allocator<char> > const, std::__cxx11::basic_string<char, std::char_traits<char>, std::allocator<char> > > >::_Rb_tree_const_iterator(std::_Rb_tree_iterator<std::pair<std::__cxx11::basic_string<char, std::char_traits<char>, std::allocator<char> > const, std::__cxx11::basic_string<char, std::char_traits<char>, std::allocator<char> > > > const&)
FUNC 4e80 4b 0 std::tuple<std::__cxx11::basic_string<char, std::char_traits<char>, std::allocator<char> >&&> std::forward_as_tuple<std::__cxx11::basic_string<char, std::char_traits<char>, std::allocator<char> > >(std::__cxx11::basic_string<char, std::char_traits<char>, std::allocator<char> >&&)
FUNC 4ed0 e 0 std::remove_reference<std::__cxx11::basic_string<char, std::char_traits<char>, std::allocator<char> >&>::type&& std::move<std::__cxx11::basic_string<char, std::char_traits<char>, std::allocator<char> >&>(std::__cxx11::basic_string<char, std::char_traits<char>, std::allocator<char> >&)
FUNC 4ee0 4f 0 std::_Rb_tree<std::__cxx11::basic_string<char, std::char_traits<char>, std::allocator<char> >, std::pair<std::__cxx11::basic_string<char, std::char_traits<char>, std::allocator<char> > const, std::__cxx11::basic_string<char, std::char_traits<char>, std::allocator<char> > >, std::_Select1st<std::pair<std::__cxx11::basic_string<char, std::char_traits<char>, std::allocator<char> > const, std::__cxx11::basic_string<char, std::char_traits<char>, std::allocator<char> > > >, std::less<std::__cxx11::basic_string<char, std::char_traits<char>, std::allocator<char> > >, std::allocator<std::pair<std::__cxx11::basic_string<char, std::char_traits<char>, std::allocator<char> > const, std::__cxx11::basic_string<char, std::char_traits<char>, std::allocator<char> > > > >::lower_bound(std::__cxx11::basic_string<char, std::char_traits<char>, std::allocator<char> > const&)
FUNC 4f30 9d 0 std::_Rb_tree<std::__cxx11::basic_string<char, std::char_traits<char>, std::allocator<char> >, std::pair<std::__cxx11::basic_string<char, std::char_traits<char>, std::allocator<char> > const, std::__cxx11::basic_string<char, std::char_traits<char>, std::allocator<char> > >, std::_Select1st<std::pair<std::__cxx11::basic_string<char, std::char_traits<char>, std::allocator<char> > const, std::__cxx11::basic_string<char, std::char_traits<char>, std::allocator<char> > > >, std::less<std::__cxx11::basic_string<char, std::char_traits<char>, std::allocator<char> > >, std::allocator<std::pair<std::__cxx11::basic_string<char, std::char_traits<char>, std::allocator<char> > const, std::__cxx11::basic_string<char, std::char_traits<char>, std::allocator<char> > > > >::_M_lower_bound(std::_Rb_tree_node<std::pair<std::__cxx11::basic_string<char, std::char_traits<char>, std::allocator<char> > const, std::__cxx11::basic_string<char, std::char_traits<char>, std::allocator<char> > > >*, std::_Rb_tree_node_base*, std::__cxx11::basic_string<char, std::char_traits<char>, std::allocator<char> > const&)
FUNC 4fd0 15 0 std::_Rb_tree<std::__cxx11::basic_string<char, std::char_traits<char>, std::allocator<char> >, std::pair<std::__cxx11::basic_string<char, std::char_traits<char>, std::allocator<char> > const, std::__cxx11::basic_string<char, std::char_traits<char>, std::allocator<char> > >, std::_Select1st<std::pair<std::__cxx11::basic_string<char, std::char_traits<char>, std::allocator<char> > const, std::__cxx11::basic_string<char, std::char_traits<char>, std::allocator<char> > > >, std::less<std::__cxx11::basic_string<char, std::char_traits<char>, std::allocator<char> > >, std::allocator<std::pair<std::__cxx11::basic_string<char, std::char_traits<char>, std::allocator<char> > const, std::__cxx11::basic_string<char, std::char_traits<char>, std::allocator<char> > > > >::_M_end()
FUNC 4ff0 27 0 std::_Rb_tree<std::__cxx11::basic_string<char, std::char_traits<char>, std::allocator<char> >, std::pair<std::__cxx11::basic_string<char, std::char_traits<char>, std::allocator<char> > const, std::__cxx11::basic_string<char, std::char_traits<char>, std::allocator<char> > >, std::_Select1st<std::pair<std::__cxx11::basic_string<char, std::char_traits<char>, std::allocator<char> > const, std::__cxx11::basic_string<char, std::char_traits<char>, std::allocator<char> > > >, std::less<std::__cxx11::basic_string<char, std::char_traits<char>, std::allocator<char> > >, std::allocator<std::pair<std::__cxx11::basic_string<char, std::char_traits<char>, std::allocator<char> > const, std::__cxx11::basic_string<char, std::char_traits<char>, std::allocator<char> > > > >::_S_key(std::_Rb_tree_node<std::pair<std::__cxx11::basic_string<char, std::char_traits<char>, std::allocator<char> > const, std::__cxx11::basic_string<char, std::char_traits<char>, std::allocator<char> > > > const*)
FUNC 5020 19 0 std::_Rb_tree_iterator<std::pair<std::__cxx11::basic_string<char, std::char_traits<char>, std::allocator<char> > const, std::__cxx11::basic_string<char, std::char_traits<char>, std::allocator<char> > > >::_Rb_tree_iterator(std::_Rb_tree_node_base*)
FUNC 5040 12 0 std::_Select1st<std::pair<std::__cxx11::basic_string<char, std::char_traits<char>, std::allocator<char> > const, std::__cxx11::basic_string<char, std::char_traits<char>, std::allocator<char> > > >::operator()(std::pair<std::__cxx11::basic_string<char, std::char_traits<char>, std::allocator<char> > const, std::__cxx11::basic_string<char, std::char_traits<char>, std::allocator<char> > > const&) const
FUNC 5060 1b 0 std::_Rb_tree<std::__cxx11::basic_string<char, std::char_traits<char>, std::allocator<char> >, std::pair<std::__cxx11::basic_string<char, std::char_traits<char>, std::allocator<char> > const, std::__cxx11::basic_string<char, std::char_traits<char>, std::allocator<char> > >, std::_Select1st<std::pair<std::__cxx11::basic_string<char, std::char_traits<char>, std::allocator<char> > const, std::__cxx11::basic_string<char, std::char_traits<char>, std::allocator<char> > > >, std::less<std::__cxx11::basic_string<char, std::char_traits<char>, std::allocator<char> > >, std::allocator<std::pair<std::__cxx11::basic_string<char, std::char_traits<char>, std::allocator<char> > const, std::__cxx11::basic_string<char, std::char_traits<char>, std::allocator<char> > > > >::_S_value(std::_Rb_tree_node<std::pair<std::__cxx11::basic_string<char, std::char_traits<char>, std::allocator<char> > const, std::__cxx11::basic_string<char, std::char_traits<char>, std::allocator<char> > > > const*)
FUNC 5080 1f 0 std::_Rb_tree_node<std::pair<std::__cxx11::basic_string<char, std::char_traits<char>, std::allocator<char> > const, std::__cxx11::basic_string<char, std::char_traits<char>, std::allocator<char> > > >::_M_valptr() const
FUNC 50a0 1b 0 __gnu_cxx::__aligned_membuf<std::pair<std::__cxx11::basic_string<char, std::char_traits<char>, std::allocator<char> > const, std::__cxx11::basic_string<char, std::char_traits<char>, std::allocator<char> > > >::_M_ptr() const
FUNC 50c0 11 0 __gnu_cxx::__aligned_membuf<std::pair<std::__cxx11::basic_string<char, std::char_traits<char>, std::allocator<char> > const, std::__cxx11::basic_string<char, std::char_traits<char>, std::allocator<char> > > >::_M_addr() const
FUNC 50e0 32 0 std::_Rb_tree<std::__cxx11::basic_string<char, std::char_traits<char>, std::allocator<char> >, std::pair<std::__cxx11::basic_string<char, std::char_traits<char>, std::allocator<char> > const, std::__cxx11::basic_string<char, std::char_traits<char>, std::allocator<char> > >, std::_Select1st<std::pair<std::__cxx11::basic_string<char, std::char_traits<char>, std::allocator<char> > const, std::__cxx11::basic_string<char, std::char_traits<char>, std::allocator<char> > > >, std::less<std::__cxx11::basic_string<char, std::char_traits<char>, std::allocator<char> > >, std::allocator<std::pair<std::__cxx11::basic_string<char, std::char_traits<char>, std::allocator<char> > const, std::__cxx11::basic_string<char, std::char_traits<char>, std::allocator<char> > > > >::end()
FUNC 5120 a 0 std::_Rb_tree<std::__cxx11::basic_string<char, std::char_traits<char>, std::allocator<char> >, std::pair<std::__cxx11::basic_string<char, std::char_traits<char>, std::allocator<char> > const, std::__cxx11::basic_string<char, std::char_traits<char>, std::allocator<char> > >, std::_Select1st<std::pair<std::__cxx11::basic_string<char, std::char_traits<char>, std::allocator<char> > const, std::__cxx11::basic_string<char, std::char_traits<char>, std::allocator<char> > > >, std::less<std::__cxx11::basic_string<char, std::char_traits<char>, std::allocator<char> > >, std::allocator<std::pair<std::__cxx11::basic_string<char, std::char_traits<char>, std::allocator<char> > const, std::__cxx11::basic_string<char, std::char_traits<char>, std::allocator<char> > > > >::key_comp() const
FUNC 5130 47 0 bool std::operator< <char, std::char_traits<char>, std::allocator<char> >(std::__cxx11::basic_string<char, std::char_traits<char>, std::allocator<char> > const&, std::__cxx11::basic_string<char, std::char_traits<char>, std::allocator<char> > const&)
FUNC 5180 79 0 std::_Rb_tree_node<std::pair<std::__cxx11::basic_string<char, std::char_traits<char>, std::allocator<char> > const, std::__cxx11::basic_string<char, std::char_traits<char>, std::allocator<char> > > >* std::_Rb_tree<std::__cxx11::basic_string<char, std::char_traits<char>, std::allocator<char> >, std::pair<std::__cxx11::basic_string<char, std::char_traits<char>, std::allocator<char> > const, std::__cxx11::basic_string<char, std::char_traits<char>, std::allocator<char> > >, std::_Select1st<std::pair<std::__cxx11::basic_string<char, std::char_traits<char>, std::allocator<char> > const, std::__cxx11::basic_string<char, std::char_traits<char>, std::allocator<char> > > >, std::less<std::__cxx11::basic_string<char, std::char_traits<char>, std::allocator<char> > >, std::allocator<std::pair<std::__cxx11::basic_string<char, std::char_traits<char>, std::allocator<char> > const, std::__cxx11::basic_string<char, std::char_traits<char>, std::allocator<char> > > > >::_M_create_node<std::piecewise_construct_t const&, std::tuple<std::__cxx11::basic_string<char, std::char_traits<char>, std::allocator<char> >&&>, std::tuple<> >(std::piecewise_construct_t const&, std::tuple<std::__cxx11::basic_string<char, std::char_traits<char>, std::allocator<char> >&&>&&, std::tuple<>&&)
FUNC 5200 e 0 std::piecewise_construct_t const& std::forward<std::piecewise_construct_t const&>(std::remove_reference<std::piecewise_construct_t const&>::type&)
FUNC 5210 e 0 std::tuple<std::__cxx11::basic_string<char, std::char_traits<char>, std::allocator<char> >&&>&& std::forward<std::tuple<std::__cxx11::basic_string<char, std::char_traits<char>, std::allocator<char> >&&> >(std::remove_reference<std::tuple<std::__cxx11::basic_string<char, std::char_traits<char>, std::allocator<char> >&&> >::type&)
FUNC 5220 e 0 std::tuple<>&& std::forward<std::tuple<> >(std::remove_reference<std::tuple<> >::type&)
FUNC 5230 371 0 std::_Rb_tree<std::__cxx11::basic_string<char, std::char_traits<char>, std::allocator<char> >, std::pair<std::__cxx11::basic_string<char, std::char_traits<char>, std::allocator<char> > const, std::__cxx11::basic_string<char, std::char_traits<char>, std::allocator<char> > >, std::_Select1st<std::pair<std::__cxx11::basic_string<char, std::char_traits<char>, std::allocator<char> > const, std::__cxx11::basic_string<char, std::char_traits<char>, std::allocator<char> > > >, std::less<std::__cxx11::basic_string<char, std::char_traits<char>, std::allocator<char> > >, std::allocator<std::pair<std::__cxx11::basic_string<char, std::char_traits<char>, std::allocator<char> > const, std::__cxx11::basic_string<char, std::char_traits<char>, std::allocator<char> > > > >::_M_get_insert_hint_unique_pos(std::_Rb_tree_const_iterator<std::pair<std::__cxx11::basic_string<char, std::char_traits<char>, std::allocator<char> > const, std::__cxx11::basic_string<char, std::char_traits<char>, std::allocator<char> > > >, std::__cxx11::basic_string<char, std::char_traits<char>, std::allocator<char> > const&)
FUNC 55b0 de 0 std::_Rb_tree<std::__cxx11::basic_string<char, std::char_traits<char>, std::allocator<char> >, std::pair<std::__cxx11::basic_string<char, std::char_traits<char>, std::allocator<char> > const, std::__cxx11::basic_string<char, std::char_traits<char>, std::allocator<char> > >, std::_Select1st<std::pair<std::__cxx11::basic_string<char, std::char_traits<char>, std::allocator<char> > const, std::__cxx11::basic_string<char, std::char_traits<char>, std::allocator<char> > > >, std::less<std::__cxx11::basic_string<char, std::char_traits<char>, std::allocator<char> > >, std::allocator<std::pair<std::__cxx11::basic_string<char, std::char_traits<char>, std::allocator<char> > const, std::__cxx11::basic_string<char, std::char_traits<char>, std::allocator<char> > > > >::_M_insert_node(std::_Rb_tree_node_base*, std::_Rb_tree_node_base*, std::_Rb_tree_node<std::pair<std::__cxx11::basic_string<char, std::char_traits<char>, std::allocator<char> > const, std::__cxx11::basic_string<char, std::char_traits<char>, std::allocator<char> > > >*)
FUNC 5690 2a 0 std::_Rb_tree<std::__cxx11::basic_string<char, std::char_traits<char>, std::allocator<char> >, std::pair<std::__cxx11::basic_string<char, std::char_traits<char>, std::allocator<char> > const, std::__cxx11::basic_string<char, std::char_traits<char>, std::allocator<char> > >, std::_Select1st<std::pair<std::__cxx11::basic_string<char, std::char_traits<char>, std::allocator<char> > const, std::__cxx11::basic_string<char, std::char_traits<char>, std::allocator<char> > > >, std::less<std::__cxx11::basic_string<char, std::char_traits<char>, std::allocator<char> > >, std::allocator<std::pair<std::__cxx11::basic_string<char, std::char_traits<char>, std::allocator<char> > const, std::__cxx11::basic_string<char, std::char_traits<char>, std::allocator<char> > > > >::_M_get_node()
FUNC 56c0 e8 0 void std::_Rb_tree<std::__cxx11::basic_string<char, std::char_traits<char>, std::allocator<char> >, std::pair<std::__cxx11::basic_string<char, std::char_traits<char>, std::allocator<char> > const, std::__cxx11::basic_string<char, std::char_traits<char>, std::allocator<char> > >, std::_Select1st<std::pair<std::__cxx11::basic_string<char, std::char_traits<char>, std::allocator<char> > const, std::__cxx11::basic_string<char, std::char_traits<char>, std::allocator<char> > > >, std::less<std::__cxx11::basic_string<char, std::char_traits<char>, std::allocator<char> > >, std::allocator<std::pair<std::__cxx11::basic_string<char, std::char_traits<char>, std::allocator<char> > const, std::__cxx11::basic_string<char, std::char_traits<char>, std::allocator<char> > > > >::_M_construct_node<std::piecewise_construct_t const&, std::tuple<std::__cxx11::basic_string<char, std::char_traits<char>, std::allocator<char> >&&>, std::tuple<> >(std::_Rb_tree_node<std::pair<std::__cxx11::basic_string<char, std::char_traits<char>, std::allocator<char> > const, std::__cxx11::basic_string<char, std::char_traits<char>, std::allocator<char> > > >*, std::piecewise_construct_t const&, std::tuple<std::__cxx11::basic_string<char, std::char_traits<char>, std::allocator<char> >&&>&&, std::tuple<>&&)
FUNC 57b0 32 0 std::allocator_traits<std::allocator<std::_Rb_tree_node<std::pair<std::__cxx11::basic_string<char, std::char_traits<char>, std::allocator<char> > const, std::__cxx11::basic_string<char, std::char_traits<char>, std::allocator<char> > > > > >::allocate(std::allocator<std::_Rb_tree_node<std::pair<std::__cxx11::basic_string<char, std::char_traits<char>, std::allocator<char> > const, std::__cxx11::basic_string<char, std::char_traits<char>, std::allocator<char> > > > >&, unsigned long)
FUNC 57f0 47 0 __gnu_cxx::new_allocator<std::_Rb_tree_node<std::pair<std::__cxx11::basic_string<char, std::char_traits<char>, std::allocator<char> > const, std::__cxx11::basic_string<char, std::char_traits<char>, std::allocator<char> > > > >::allocate(unsigned long, void const*)
FUNC 5840 14 0 __gnu_cxx::new_allocator<std::_Rb_tree_node<std::pair<std::__cxx11::basic_string<char, std::char_traits<char>, std::allocator<char> > const, std::__cxx11::basic_string<char, std::char_traits<char>, std::allocator<char> > > > >::max_size() const
FUNC 5860 6d 0 void std::allocator_traits<std::allocator<std::_Rb_tree_node<std::pair<std::__cxx11::basic_string<char, std::char_traits<char>, std::allocator<char> > const, std::__cxx11::basic_string<char, std::char_traits<char>, std::allocator<char> > > > > >::construct<std::pair<std::__cxx11::basic_string<char, std::char_traits<char>, std::allocator<char> > const, std::__cxx11::basic_string<char, std::char_traits<char>, std::allocator<char> > >, std::piecewise_construct_t const&, std::tuple<std::__cxx11::basic_string<char, std::char_traits<char>, std::allocator<char> >&&>, std::tuple<> >(std::allocator<std::_Rb_tree_node<std::pair<std::__cxx11::basic_string<char, std::char_traits<char>, std::allocator<char> > const, std::__cxx11::basic_string<char, std::char_traits<char>, std::allocator<char> > > > >&, std::pair<std::__cxx11::basic_string<char, std::char_traits<char>, std::allocator<char> > const, std::__cxx11::basic_string<char, std::char_traits<char>, std::allocator<char> > >*, std::piecewise_construct_t const&, std::tuple<std::__cxx11::basic_string<char, std::char_traits<char>, std::allocator<char> >&&>&&, std::tuple<>&&)
FUNC 58d0 66 0 void __gnu_cxx::new_allocator<std::_Rb_tree_node<std::pair<std::__cxx11::basic_string<char, std::char_traits<char>, std::allocator<char> > const, std::__cxx11::basic_string<char, std::char_traits<char>, std::allocator<char> > > > >::construct<std::pair<std::__cxx11::basic_string<char, std::char_traits<char>, std::allocator<char> > const, std::__cxx11::basic_string<char, std::char_traits<char>, std::allocator<char> > >, std::piecewise_construct_t const&, std::tuple<std::__cxx11::basic_string<char, std::char_traits<char>, std::allocator<char> >&&>, std::tuple<> >(std::pair<std::__cxx11::basic_string<char, std::char_traits<char>, std::allocator<char> > const, std::__cxx11::basic_string<char, std::char_traits<char>, std::allocator<char> > >*, std::piecewise_construct_t const&, std::tuple<std::__cxx11::basic_string<char, std::char_traits<char>, std::allocator<char> >&&>&&, std::tuple<>&&)
FUNC 5940 2e 0 std::tuple<std::__cxx11::basic_string<char, std::char_traits<char>, std::allocator<char> >&&>::tuple(std::tuple<std::__cxx11::basic_string<char, std::char_traits<char>, std::allocator<char> >&&>&&)
FUNC 5970 1f 0 std::pair<std::__cxx11::basic_string<char, std::char_traits<char>, std::allocator<char> > const, std::__cxx11::basic_string<char, std::char_traits<char>, std::allocator<char> > >::pair<std::__cxx11::basic_string<char, std::char_traits<char>, std::allocator<char> >&&>(std::piecewise_construct_t, std::tuple<std::__cxx11::basic_string<char, std::char_traits<char>, std::allocator<char> >&&>, std::tuple<>)
FUNC 5990 50 0 std::_Tuple_impl<0ul, std::__cxx11::basic_string<char, std::char_traits<char>, std::allocator<char> >&&>::_Tuple_impl(std::_Tuple_impl<0ul, std::__cxx11::basic_string<char, std::char_traits<char>, std::allocator<char> >&&>&&)
FUNC 59e0 e 0 std::__cxx11::basic_string<char, std::char_traits<char>, std::allocator<char> >&& std::forward<std::__cxx11::basic_string<char, std::char_traits<char>, std::allocator<char> >&&>(std::remove_reference<std::__cxx11::basic_string<char, std::char_traits<char>, std::allocator<char> >&&>::type&)
FUNC 59f0 1b 0 std::_Tuple_impl<0ul, std::__cxx11::basic_string<char, std::char_traits<char>, std::allocator<char> >&&>::_M_head(std::_Tuple_impl<0ul, std::__cxx11::basic_string<char, std::char_traits<char>, std::allocator<char> >&&>&)
FUNC 5a10 2e 0 std::_Head_base<0ul, std::__cxx11::basic_string<char, std::char_traits<char>, std::allocator<char> >&&, false>::_Head_base<std::__cxx11::basic_string<char, std::char_traits<char>, std::allocator<char> > >(std::__cxx11::basic_string<char, std::char_traits<char>, std::allocator<char> >&&)
FUNC 5a40 11 0 std::_Head_base<0ul, std::__cxx11::basic_string<char, std::char_traits<char>, std::allocator<char> >&&, false>::_M_head(std::_Head_base<0ul, std::__cxx11::basic_string<char, std::char_traits<char>, std::allocator<char> >&&, false>&)
FUNC 5a60 e 0 std::__cxx11::basic_string<char, std::char_traits<char>, std::allocator<char> >&& std::forward<std::__cxx11::basic_string<char, std::char_traits<char>, std::allocator<char> > >(std::remove_reference<std::__cxx11::basic_string<char, std::char_traits<char>, std::allocator<char> > >::type&)
FUNC 5a70 4f 0 std::pair<std::__cxx11::basic_string<char, std::char_traits<char>, std::allocator<char> > const, std::__cxx11::basic_string<char, std::char_traits<char>, std::allocator<char> > >::pair<std::__cxx11::basic_string<char, std::char_traits<char>, std::allocator<char> >&&, 0ul>(std::tuple<std::__cxx11::basic_string<char, std::char_traits<char>, std::allocator<char> >&&>&, std::tuple<>&, std::_Index_tuple<0ul>, std::_Index_tuple<>)
FUNC 5ac0 1b 0 std::tuple_element<0ul, std::tuple<std::__cxx11::basic_string<char, std::char_traits<char>, std::allocator<char> >&&> >::type& std::get<0ul, std::__cxx11::basic_string<char, std::char_traits<char>, std::allocator<char> >&&>(std::tuple<std::__cxx11::basic_string<char, std::char_traits<char>, std::allocator<char> >&&>&)
FUNC 5ae0 1b 0 std::__cxx11::basic_string<char, std::char_traits<char>, std::allocator<char> >& std::__get_helper<0ul, std::__cxx11::basic_string<char, std::char_traits<char>, std::allocator<char> >&&>(std::_Tuple_impl<0ul, std::__cxx11::basic_string<char, std::char_traits<char>, std::allocator<char> >&&>&)
FUNC 5b00 29 0 std::_Rb_tree_const_iterator<std::pair<std::__cxx11::basic_string<char, std::char_traits<char>, std::allocator<char> > const, std::__cxx11::basic_string<char, std::char_traits<char>, std::allocator<char> > > >::_M_const_cast() const
FUNC 5b30 12 0 std::_Rb_tree<std::__cxx11::basic_string<char, std::char_traits<char>, std::allocator<char> >, std::pair<std::__cxx11::basic_string<char, std::char_traits<char>, std::allocator<char> > const, std::__cxx11::basic_string<char, std::char_traits<char>, std::allocator<char> > >, std::_Select1st<std::pair<std::__cxx11::basic_string<char, std::char_traits<char>, std::allocator<char> > const, std::__cxx11::basic_string<char, std::char_traits<char>, std::allocator<char> > > >, std::less<std::__cxx11::basic_string<char, std::char_traits<char>, std::allocator<char> > >, std::allocator<std::pair<std::__cxx11::basic_string<char, std::char_traits<char>, std::allocator<char> > const, std::__cxx11::basic_string<char, std::char_traits<char>, std::allocator<char> > > > >::size() const
FUNC 5b50 27 0 std::_Rb_tree<std::__cxx11::basic_string<char, std::char_traits<char>, std::allocator<char> >, std::pair<std::__cxx11::basic_string<char, std::char_traits<char>, std::allocator<char> > const, std::__cxx11::basic_string<char, std::char_traits<char>, std::allocator<char> > >, std::_Select1st<std::pair<std::__cxx11::basic_string<char, std::char_traits<char>, std::allocator<char> > const, std::__cxx11::basic_string<char, std::char_traits<char>, std::allocator<char> > > >, std::less<std::__cxx11::basic_string<char, std::char_traits<char>, std::allocator<char> > >, std::allocator<std::pair<std::__cxx11::basic_string<char, std::char_traits<char>, std::allocator<char> > const, std::__cxx11::basic_string<char, std::char_traits<char>, std::allocator<char> > > > >::_S_key(std::_Rb_tree_node_base const*)
FUNC 5b80 19 0 std::_Rb_tree<std::__cxx11::basic_string<char, std::char_traits<char>, std::allocator<char> >, std::pair<std::__cxx11::basic_string<char, std::char_traits<char>, std::allocator<char> > const, std::__cxx11::basic_string<char, std::char_traits<char>, std::allocator<char> > >, std::_Select1st<std::pair<std::__cxx11::basic_string<char, std::char_traits<char>, std::allocator<char> > const, std::__cxx11::basic_string<char, std::char_traits<char>, std::allocator<char> > > >, std::less<std::__cxx11::basic_string<char, std::char_traits<char>, std::allocator<char> > >, std::allocator<std::pair<std::__cxx11::basic_string<char, std::char_traits<char>, std::allocator<char> > const, std::__cxx11::basic_string<char, std::char_traits<char>, std::allocator<char> > > > >::_M_rightmost()
FUNC 5ba0 40 0 std::pair<std::_Rb_tree_node_base*, std::_Rb_tree_node_base*>::pair<std::_Rb_tree_node_base*&, true>(std::_Rb_tree_node_base* const&, std::_Rb_tree_node_base*&)
FUNC 5be0 189 0 std::_Rb_tree<std::__cxx11::basic_string<char, std::char_traits<char>, std::allocator<char> >, std::pair<std::__cxx11::basic_string<char, std::char_traits<char>, std::allocator<char> > const, std::__cxx11::basic_string<char, std::char_traits<char>, std::allocator<char> > >, std::_Select1st<std::pair<std::__cxx11::basic_string<char, std::char_traits<char>, std::allocator<char> > const, std::__cxx11::basic_string<char, std::char_traits<char>, std::allocator<char> > > >, std::less<std::__cxx11::basic_string<char, std::char_traits<char>, std::allocator<char> > >, std::allocator<std::pair<std::__cxx11::basic_string<char, std::char_traits<char>, std::allocator<char> > const, std::__cxx11::basic_string<char, std::char_traits<char>, std::allocator<char> > > > >::_M_get_insert_unique_pos(std::__cxx11::basic_string<char, std::char_traits<char>, std::allocator<char> > const&)
FUNC 5d70 19 0 std::_Rb_tree<std::__cxx11::basic_string<char, std::char_traits<char>, std::allocator<char> >, std::pair<std::__cxx11::basic_string<char, std::char_traits<char>, std::allocator<char> > const, std::__cxx11::basic_string<char, std::char_traits<char>, std::allocator<char> > >, std::_Select1st<std::pair<std::__cxx11::basic_string<char, std::char_traits<char>, std::allocator<char> > const, std::__cxx11::basic_string<char, std::char_traits<char>, std::allocator<char> > > >, std::less<std::__cxx11::basic_string<char, std::char_traits<char>, std::allocator<char> > >, std::allocator<std::pair<std::__cxx11::basic_string<char, std::char_traits<char>, std::allocator<char> > const, std::__cxx11::basic_string<char, std::char_traits<char>, std::allocator<char> > > > >::_M_leftmost()
FUNC 5d90 49 0 std::pair<std::_Rb_tree_node_base*, std::_Rb_tree_node_base*>::pair<std::_Rb_tree_node_base*&, std::_Rb_tree_node_base*&, true>(std::_Rb_tree_node_base*&, std::_Rb_tree_node_base*&)
FUNC 5de0 2f 0 std::_Rb_tree_iterator<std::pair<std::__cxx11::basic_string<char, std::char_traits<char>, std::allocator<char> > const, std::__cxx11::basic_string<char, std::char_traits<char>, std::allocator<char> > > >::operator--()
FUNC 5e10 2f 0 std::_Rb_tree_iterator<std::pair<std::__cxx11::basic_string<char, std::char_traits<char>, std::allocator<char> > const, std::__cxx11::basic_string<char, std::char_traits<char>, std::allocator<char> > > >::operator++()
FUNC 5e40 40 0 std::pair<std::_Rb_tree_node_base*, std::_Rb_tree_node_base*>::pair<std::_Rb_tree_node_base*&, true>(std::_Rb_tree_node_base*&, std::_Rb_tree_node_base* const&)
FUNC 5e80 1b 0 std::_Rb_tree<std::__cxx11::basic_string<char, std::char_traits<char>, std::allocator<char> >, std::pair<std::__cxx11::basic_string<char, std::char_traits<char>, std::allocator<char> > const, std::__cxx11::basic_string<char, std::char_traits<char>, std::allocator<char> > >, std::_Select1st<std::pair<std::__cxx11::basic_string<char, std::char_traits<char>, std::allocator<char> > const, std::__cxx11::basic_string<char, std::char_traits<char>, std::allocator<char> > > >, std::less<std::__cxx11::basic_string<char, std::char_traits<char>, std::allocator<char> > >, std::allocator<std::pair<std::__cxx11::basic_string<char, std::char_traits<char>, std::allocator<char> > const, std::__cxx11::basic_string<char, std::char_traits<char>, std::allocator<char> > > > >::_S_value(std::_Rb_tree_node_base const*)
FUNC 5ea0 e 0 std::_Rb_tree_node_base*& std::forward<std::_Rb_tree_node_base*&>(std::remove_reference<std::_Rb_tree_node_base*&>::type&)
FUNC 5eb0 2a 0 std::_Rb_tree<std::__cxx11::basic_string<char, std::char_traits<char>, std::allocator<char> >, std::pair<std::__cxx11::basic_string<char, std::char_traits<char>, std::allocator<char> > const, std::__cxx11::basic_string<char, std::char_traits<char>, std::allocator<char> > >, std::_Select1st<std::pair<std::__cxx11::basic_string<char, std::char_traits<char>, std::allocator<char> > const, std::__cxx11::basic_string<char, std::char_traits<char>, std::allocator<char> > > >, std::less<std::__cxx11::basic_string<char, std::char_traits<char>, std::allocator<char> > >, std::allocator<std::pair<std::__cxx11::basic_string<char, std::char_traits<char>, std::allocator<char> > const, std::__cxx11::basic_string<char, std::char_traits<char>, std::allocator<char> > > > >::begin()
FUNC 5ee0 49 0 std::pair<std::_Rb_tree_node_base*, std::_Rb_tree_node_base*>::pair<std::_Rb_tree_node<std::pair<std::__cxx11::basic_string<char, std::char_traits<char>, std::allocator<char> > const, std::__cxx11::basic_string<char, std::char_traits<char>, std::allocator<char> > > >*&, std::_Rb_tree_node_base*&, true>(std::_Rb_tree_node<std::pair<std::__cxx11::basic_string<char, std::char_traits<char>, std::allocator<char> > const, std::__cxx11::basic_string<char, std::char_traits<char>, std::allocator<char> > > >*&, std::_Rb_tree_node_base*&)
FUNC 5f30 e 0 std::_Rb_tree_node<std::pair<std::__cxx11::basic_string<char, std::char_traits<char>, std::allocator<char> > const, std::__cxx11::basic_string<char, std::char_traits<char>, std::allocator<char> > > >*& std::forward<std::_Rb_tree_node<std::pair<std::__cxx11::basic_string<char, std::char_traits<char>, std::allocator<char> > const, std::__cxx11::basic_string<char, std::char_traits<char>, std::allocator<char> > > >*&>(std::remove_reference<std::_Rb_tree_node<std::pair<std::__cxx11::basic_string<char, std::char_traits<char>, std::allocator<char> > const, std::__cxx11::basic_string<char, std::char_traits<char>, std::allocator<char> > > >*&>::type&)
FUNC 5f40 33 0 std::tuple<std::__cxx11::basic_string<char, std::char_traits<char>, std::allocator<char> >&&>::tuple<std::__cxx11::basic_string<char, std::char_traits<char>, std::allocator<char> >, true>(std::__cxx11::basic_string<char, std::char_traits<char>, std::allocator<char> >&&)
FUNC 5f80 33 0 std::_Tuple_impl<0ul, std::__cxx11::basic_string<char, std::char_traits<char>, std::allocator<char> >&&>::_Tuple_impl<std::__cxx11::basic_string<char, std::char_traits<char>, std::allocator<char> > >(std::__cxx11::basic_string<char, std::char_traits<char>, std::allocator<char> >&&)
FUNC 5fc0 1b 0 std::_Vector_base<std::__cxx11::basic_string<char, std::char_traits<char>, std::allocator<char> >, std::allocator<std::__cxx11::basic_string<char, std::char_traits<char>, std::allocator<char> > > >::_Vector_base()
FUNC 5fe0 40 0 std::_Vector_base<std::__cxx11::basic_string<char, std::char_traits<char>, std::allocator<char> >, std::allocator<std::__cxx11::basic_string<char, std::char_traits<char>, std::allocator<char> > > >::_Vector_impl::_Vector_impl()
FUNC 6020 1b 0 std::allocator<std::__cxx11::basic_string<char, std::char_traits<char>, std::allocator<char> > >::allocator()
FUNC 6040 a 0 __gnu_cxx::new_allocator<std::__cxx11::basic_string<char, std::char_traits<char>, std::allocator<char> > >::new_allocator()
FUNC 6050 27 0 void std::_Destroy<std::__cxx11::basic_string<char, std::char_traits<char>, std::allocator<char> >*, std::__cxx11::basic_string<char, std::char_traits<char>, std::allocator<char> > >(std::__cxx11::basic_string<char, std::char_traits<char>, std::allocator<char> >*, std::__cxx11::basic_string<char, std::char_traits<char>, std::allocator<char> >*, std::allocator<std::__cxx11::basic_string<char, std::char_traits<char>, std::allocator<char> > >&)
FUNC 6080 11 0 std::_Vector_base<std::__cxx11::basic_string<char, std::char_traits<char>, std::allocator<char> >, std::allocator<std::__cxx11::basic_string<char, std::char_traits<char>, std::allocator<char> > > >::_M_get_Tp_allocator()
FUNC 60a0 5c 0 std::_Vector_base<std::__cxx11::basic_string<char, std::char_traits<char>, std::allocator<char> >, std::allocator<std::__cxx11::basic_string<char, std::char_traits<char>, std::allocator<char> > > >::~_Vector_base()
FUNC 6100 23 0 void std::_Destroy<std::__cxx11::basic_string<char, std::char_traits<char>, std::allocator<char> >*>(std::__cxx11::basic_string<char, std::char_traits<char>, std::allocator<char> >*, std::__cxx11::basic_string<char, std::char_traits<char>, std::allocator<char> >*)
FUNC 6130 46 0 void std::_Destroy_aux<false>::__destroy<std::__cxx11::basic_string<char, std::char_traits<char>, std::allocator<char> >*>(std::__cxx11::basic_string<char, std::char_traits<char>, std::allocator<char> >*, std::__cxx11::basic_string<char, std::char_traits<char>, std::allocator<char> >*)
FUNC 6180 1b 0 void std::_Destroy<std::__cxx11::basic_string<char, std::char_traits<char>, std::allocator<char> > >(std::__cxx11::basic_string<char, std::char_traits<char>, std::allocator<char> >*)
FUNC 61a0 e 0 std::__cxx11::basic_string<char, std::char_traits<char>, std::allocator<char> >* std::__addressof<std::__cxx11::basic_string<char, std::char_traits<char>, std::allocator<char> > >(std::__cxx11::basic_string<char, std::char_traits<char>, std::allocator<char> >&)
FUNC 61b0 41 0 std::_Vector_base<std::__cxx11::basic_string<char, std::char_traits<char>, std::allocator<char> >, std::allocator<std::__cxx11::basic_string<char, std::char_traits<char>, std::allocator<char> > > >::_M_deallocate(std::__cxx11::basic_string<char, std::char_traits<char>, std::allocator<char> >*, unsigned long)
FUNC 6200 1b 0 std::_Vector_base<std::__cxx11::basic_string<char, std::char_traits<char>, std::allocator<char> >, std::allocator<std::__cxx11::basic_string<char, std::char_traits<char>, std::allocator<char> > > >::_Vector_impl::~_Vector_impl()
FUNC 6220 36 0 std::allocator_traits<std::allocator<std::__cxx11::basic_string<char, std::char_traits<char>, std::allocator<char> > > >::deallocate(std::allocator<std::__cxx11::basic_string<char, std::char_traits<char>, std::allocator<char> > >&, std::__cxx11::basic_string<char, std::char_traits<char>, std::allocator<char> >*, unsigned long)
FUNC 6260 26 0 __gnu_cxx::new_allocator<std::__cxx11::basic_string<char, std::char_traits<char>, std::allocator<char> > >::deallocate(std::__cxx11::basic_string<char, std::char_traits<char>, std::allocator<char> >*, unsigned long)
FUNC 6290 1b 0 std::allocator<std::__cxx11::basic_string<char, std::char_traits<char>, std::allocator<char> > >::~allocator()
FUNC 62b0 a 0 __gnu_cxx::new_allocator<std::__cxx11::basic_string<char, std::char_traits<char>, std::allocator<char> > >::~new_allocator()
FUNC 62c0 94 0 void std::vector<std::__cxx11::basic_string<char, std::char_traits<char>, std::allocator<char> >, std::allocator<std::__cxx11::basic_string<char, std::char_traits<char>, std::allocator<char> > > >::emplace_back<std::__cxx11::basic_string<char, std::char_traits<char>, std::allocator<char> > >(std::__cxx11::basic_string<char, std::char_traits<char>, std::allocator<char> >&&)
FUNC 6360 43 0 void std::allocator_traits<std::allocator<std::__cxx11::basic_string<char, std::char_traits<char>, std::allocator<char> > > >::construct<std::__cxx11::basic_string<char, std::char_traits<char>, std::allocator<char> >, std::__cxx11::basic_string<char, std::char_traits<char>, std::allocator<char> > >(std::allocator<std::__cxx11::basic_string<char, std::char_traits<char>, std::allocator<char> > >&, std::__cxx11::basic_string<char, std::char_traits<char>, std::allocator<char> >*, std::__cxx11::basic_string<char, std::char_traits<char>, std::allocator<char> >&&)
FUNC 63b0 30a 0 void std::vector<std::__cxx11::basic_string<char, std::char_traits<char>, std::allocator<char> >, std::allocator<std::__cxx11::basic_string<char, std::char_traits<char>, std::allocator<char> > > >::_M_realloc_insert<std::__cxx11::basic_string<char, std::char_traits<char>, std::allocator<char> > >(__gnu_cxx::__normal_iterator<std::__cxx11::basic_string<char, std::char_traits<char>, std::allocator<char> >*, std::vector<std::__cxx11::basic_string<char, std::char_traits<char>, std::allocator<char> >, std::allocator<std::__cxx11::basic_string<char, std::char_traits<char>, std::allocator<char> > > > >, std::__cxx11::basic_string<char, std::char_traits<char>, std::allocator<char> >&&)
FUNC 66c0 32 0 std::vector<std::__cxx11::basic_string<char, std::char_traits<char>, std::allocator<char> >, std::allocator<std::__cxx11::basic_string<char, std::char_traits<char>, std::allocator<char> > > >::end()
FUNC 6700 37 0 void __gnu_cxx::new_allocator<std::__cxx11::basic_string<char, std::char_traits<char>, std::allocator<char> > >::construct<std::__cxx11::basic_string<char, std::char_traits<char>, std::allocator<char> >, std::__cxx11::basic_string<char, std::char_traits<char>, std::allocator<char> > >(std::__cxx11::basic_string<char, std::char_traits<char>, std::allocator<char> >*, std::__cxx11::basic_string<char, std::char_traits<char>, std::allocator<char> >&&)
FUNC 6740 dd 0 std::vector<std::__cxx11::basic_string<char, std::char_traits<char>, std::allocator<char> >, std::allocator<std::__cxx11::basic_string<char, std::char_traits<char>, std::allocator<char> > > >::_M_check_len(unsigned long, char const*) const
FUNC 6820 40 0 __gnu_cxx::__normal_iterator<std::__cxx11::basic_string<char, std::char_traits<char>, std::allocator<char> >*, std::vector<std::__cxx11::basic_string<char, std::char_traits<char>, std::allocator<char> >, std::allocator<std::__cxx11::basic_string<char, std::char_traits<char>, std::allocator<char> > > > >::difference_type __gnu_cxx::operator-<std::__cxx11::basic_string<char, std::char_traits<char>, std::allocator<char> >*, std::vector<std::__cxx11::basic_string<char, std::char_traits<char>, std::allocator<char> >, std::allocator<std::__cxx11::basic_string<char, std::char_traits<char>, std::allocator<char> > > > >(__gnu_cxx::__normal_iterator<std::__cxx11::basic_string<char, std::char_traits<char>, std::allocator<char> >*, std::vector<std::__cxx11::basic_string<char, std::char_traits<char>, std::allocator<char> >, std::allocator<std::__cxx11::basic_string<char, std::char_traits<char>, std::allocator<char> > > > > const&, __gnu_cxx::__normal_iterator<std::__cxx11::basic_string<char, std::char_traits<char>, std::allocator<char> >*, std::vector<std::__cxx11::basic_string<char, std::char_traits<char>, std::allocator<char> >, std::allocator<std::__cxx11::basic_string<char, std::char_traits<char>, std::allocator<char> > > > > const&)
FUNC 6860 2e 0 std::vector<std::__cxx11::basic_string<char, std::char_traits<char>, std::allocator<char> >, std::allocator<std::__cxx11::basic_string<char, std::char_traits<char>, std::allocator<char> > > >::begin()
FUNC 6890 53 0 std::_Vector_base<std::__cxx11::basic_string<char, std::char_traits<char>, std::allocator<char> >, std::allocator<std::__cxx11::basic_string<char, std::char_traits<char>, std::allocator<char> > > >::_M_allocate(unsigned long)
FUNC 68f0 4d 0 std::__cxx11::basic_string<char, std::char_traits<char>, std::allocator<char> >* std::__uninitialized_move_if_noexcept_a<std::__cxx11::basic_string<char, std::char_traits<char>, std::allocator<char> >*, std::__cxx11::basic_string<char, std::char_traits<char>, std::allocator<char> >*, std::allocator<std::__cxx11::basic_string<char, std::char_traits<char>, std::allocator<char> > > >(std::__cxx11::basic_string<char, std::char_traits<char>, std::allocator<char> >*, std::__cxx11::basic_string<char, std::char_traits<char>, std::allocator<char> >*, std::__cxx11::basic_string<char, std::char_traits<char>, std::allocator<char> >*, std::allocator<std::__cxx11::basic_string<char, std::char_traits<char>, std::allocator<char> > >&)
FUNC 6940 e 0 __gnu_cxx::__normal_iterator<std::__cxx11::basic_string<char, std::char_traits<char>, std::allocator<char> >*, std::vector<std::__cxx11::basic_string<char, std::char_traits<char>, std::allocator<char> >, std::allocator<std::__cxx11::basic_string<char, std::char_traits<char>, std::allocator<char> > > > >::base() const
FUNC 6950 2e 0 void std::allocator_traits<std::allocator<std::__cxx11::basic_string<char, std::char_traits<char>, std::allocator<char> > > >::destroy<std::__cxx11::basic_string<char, std::char_traits<char>, std::allocator<char> > >(std::allocator<std::__cxx11::basic_string<char, std::char_traits<char>, std::allocator<char> > >&, std::__cxx11::basic_string<char, std::char_traits<char>, std::allocator<char> >*)
FUNC 6980 23 0 std::vector<std::__cxx11::basic_string<char, std::char_traits<char>, std::allocator<char> >, std::allocator<std::__cxx11::basic_string<char, std::char_traits<char>, std::allocator<char> > > >::max_size() const
FUNC 69b0 1c 0 std::vector<std::__cxx11::basic_string<char, std::char_traits<char>, std::allocator<char> >, std::allocator<std::__cxx11::basic_string<char, std::char_traits<char>, std::allocator<char> > > >::size() const
FUNC 69d0 3b 0 unsigned long const& std::max<unsigned long>(unsigned long const&, unsigned long const&)
FUNC 6a10 1b 0 std::allocator_traits<std::allocator<std::__cxx11::basic_string<char, std::char_traits<char>, std::allocator<char> > > >::max_size(std::allocator<std::__cxx11::basic_string<char, std::char_traits<char>, std::allocator<char> > > const&)
FUNC 6a30 11 0 std::_Vector_base<std::__cxx11::basic_string<char, std::char_traits<char>, std::allocator<char> >, std::allocator<std::__cxx11::basic_string<char, std::char_traits<char>, std::allocator<char> > > >::_M_get_Tp_allocator() const
FUNC 6a50 14 0 __gnu_cxx::new_allocator<std::__cxx11::basic_string<char, std::char_traits<char>, std::allocator<char> > >::max_size() const
FUNC 6a70 1c 0 __gnu_cxx::__normal_iterator<std::__cxx11::basic_string<char, std::char_traits<char>, std::allocator<char> >*, std::vector<std::__cxx11::basic_string<char, std::char_traits<char>, std::allocator<char> >, std::allocator<std::__cxx11::basic_string<char, std::char_traits<char>, std::allocator<char> > > > >::__normal_iterator(std::__cxx11::basic_string<char, std::char_traits<char>, std::allocator<char> >* const&)
FUNC 6a90 32 0 std::allocator_traits<std::allocator<std::__cxx11::basic_string<char, std::char_traits<char>, std::allocator<char> > > >::allocate(std::allocator<std::__cxx11::basic_string<char, std::char_traits<char>, std::allocator<char> > >&, unsigned long)
FUNC 6ad0 4d 0 __gnu_cxx::new_allocator<std::__cxx11::basic_string<char, std::char_traits<char>, std::allocator<char> > >::allocate(unsigned long, void const*)
FUNC 6b20 3f 0 std::__cxx11::basic_string<char, std::char_traits<char>, std::allocator<char> >* std::__uninitialized_copy_a<std::move_iterator<std::__cxx11::basic_string<char, std::char_traits<char>, std::allocator<char> >*>, std::__cxx11::basic_string<char, std::char_traits<char>, std::allocator<char> >*, std::__cxx11::basic_string<char, std::char_traits<char>, std::allocator<char> > >(std::move_iterator<std::__cxx11::basic_string<char, std::char_traits<char>, std::allocator<char> >*>, std::move_iterator<std::__cxx11::basic_string<char, std::char_traits<char>, std::allocator<char> >*>, std::__cxx11::basic_string<char, std::char_traits<char>, std::allocator<char> >*, std::allocator<std::__cxx11::basic_string<char, std::char_traits<char>, std::allocator<char> > >&)
FUNC 6b60 26 0 std::move_iterator<std::__cxx11::basic_string<char, std::char_traits<char>, std::allocator<char> >*> std::__make_move_if_noexcept_iterator<std::__cxx11::basic_string<char, std::char_traits<char>, std::allocator<char> >, std::move_iterator<std::__cxx11::basic_string<char, std::char_traits<char>, std::allocator<char> >*> >(std::__cxx11::basic_string<char, std::char_traits<char>, std::allocator<char> >*)
FUNC 6b90 3f 0 std::__cxx11::basic_string<char, std::char_traits<char>, std::allocator<char> >* std::uninitialized_copy<std::move_iterator<std::__cxx11::basic_string<char, std::char_traits<char>, std::allocator<char> >*>, std::__cxx11::basic_string<char, std::char_traits<char>, std::allocator<char> >*>(std::move_iterator<std::__cxx11::basic_string<char, std::char_traits<char>, std::allocator<char> >*>, std::move_iterator<std::__cxx11::basic_string<char, std::char_traits<char>, std::allocator<char> >*>, std::__cxx11::basic_string<char, std::char_traits<char>, std::allocator<char> >*)
FUNC 6bd0 104 0 std::__cxx11::basic_string<char, std::char_traits<char>, std::allocator<char> >* std::__uninitialized_copy<false>::__uninit_copy<std::move_iterator<std::__cxx11::basic_string<char, std::char_traits<char>, std::allocator<char> >*>, std::__cxx11::basic_string<char, std::char_traits<char>, std::allocator<char> >*>(std::move_iterator<std::__cxx11::basic_string<char, std::char_traits<char>, std::allocator<char> >*>, std::move_iterator<std::__cxx11::basic_string<char, std::char_traits<char>, std::allocator<char> >*>, std::__cxx11::basic_string<char, std::char_traits<char>, std::allocator<char> >*)
FUNC 6ce0 2a 0 bool std::operator!=<std::__cxx11::basic_string<char, std::char_traits<char>, std::allocator<char> >*>(std::move_iterator<std::__cxx11::basic_string<char, std::char_traits<char>, std::allocator<char> >*> const&, std::move_iterator<std::__cxx11::basic_string<char, std::char_traits<char>, std::allocator<char> >*> const&)
FUNC 6d10 33 0 void std::_Construct<std::__cxx11::basic_string<char, std::char_traits<char>, std::allocator<char> >, std::__cxx11::basic_string<char, std::char_traits<char>, std::allocator<char> > >(std::__cxx11::basic_string<char, std::char_traits<char>, std::allocator<char> >*, std::__cxx11::basic_string<char, std::char_traits<char>, std::allocator<char> >&&)
FUNC 6d50 11 0 std::move_iterator<std::__cxx11::basic_string<char, std::char_traits<char>, std::allocator<char> >*>::operator*() const
FUNC 6d70 1b 0 std::move_iterator<std::__cxx11::basic_string<char, std::char_traits<char>, std::allocator<char> >*>::operator++()
FUNC 6d90 3c 0 bool std::operator==<std::__cxx11::basic_string<char, std::char_traits<char>, std::allocator<char> >*>(std::move_iterator<std::__cxx11::basic_string<char, std::char_traits<char>, std::allocator<char> >*> const&, std::move_iterator<std::__cxx11::basic_string<char, std::char_traits<char>, std::allocator<char> >*> const&)
FUNC 6dd0 11 0 std::move_iterator<std::__cxx11::basic_string<char, std::char_traits<char>, std::allocator<char> >*>::base() const
FUNC 6df0 19 0 std::move_iterator<std::__cxx11::basic_string<char, std::char_traits<char>, std::allocator<char> >*>::move_iterator(std::__cxx11::basic_string<char, std::char_traits<char>, std::allocator<char> >*)
FUNC 6e10 1f 0 void __gnu_cxx::new_allocator<std::__cxx11::basic_string<char, std::char_traits<char>, std::allocator<char> > >::destroy<std::__cxx11::basic_string<char, std::char_traits<char>, std::allocator<char> > >(std::__cxx11::basic_string<char, std::char_traits<char>, std::allocator<char> >*)
FUNC 6e30 1b 0 std::__uniq_ptr_impl<crashpad::CrashReportDatabase, std::default_delete<crashpad::CrashReportDatabase> >::_M_ptr()
FUNC 6e50 35 0 std::unique_ptr<crashpad::CrashReportDatabase, std::default_delete<crashpad::CrashReportDatabase> >::get_deleter()
FUNC 6e90 35 0 std::default_delete<crashpad::CrashReportDatabase>::operator()(crashpad::CrashReportDatabase*) const
FUNC 6ed0 1b 0 std::tuple_element<0ul, std::tuple<crashpad::CrashReportDatabase*, std::default_delete<crashpad::CrashReportDatabase> > >::type& std::get<0ul, crashpad::CrashReportDatabase*, std::default_delete<crashpad::CrashReportDatabase> >(std::tuple<crashpad::CrashReportDatabase*, std::default_delete<crashpad::CrashReportDatabase> >&)
FUNC 6ef0 1b 0 crashpad::CrashReportDatabase*& std::__get_helper<0ul, crashpad::CrashReportDatabase*, std::default_delete<crashpad::CrashReportDatabase> >(std::_Tuple_impl<0ul, crashpad::CrashReportDatabase*, std::default_delete<crashpad::CrashReportDatabase> >&)
FUNC 6f10 1b 0 std::_Tuple_impl<0ul, crashpad::CrashReportDatabase*, std::default_delete<crashpad::CrashReportDatabase> >::_M_head(std::_Tuple_impl<0ul, crashpad::CrashReportDatabase*, std::default_delete<crashpad::CrashReportDatabase> >&)
FUNC 6f30 e 0 std::_Head_base<0ul, crashpad::CrashReportDatabase*, false>::_M_head(std::_Head_base<0ul, crashpad::CrashReportDatabase*, false>&)
FUNC 6f40 1b 0 std::__uniq_ptr_impl<crashpad::CrashReportDatabase, std::default_delete<crashpad::CrashReportDatabase> >::_M_deleter()
FUNC 6f60 1b 0 std::tuple_element<1ul, std::tuple<crashpad::CrashReportDatabase*, std::default_delete<crashpad::CrashReportDatabase> > >::type& std::get<1ul, crashpad::CrashReportDatabase*, std::default_delete<crashpad::CrashReportDatabase> >(std::tuple<crashpad::CrashReportDatabase*, std::default_delete<crashpad::CrashReportDatabase> >&)
FUNC 6f80 1b 0 std::default_delete<crashpad::CrashReportDatabase>& std::__get_helper<1ul, std::default_delete<crashpad::CrashReportDatabase>>(std::_Tuple_impl<1ul, std::default_delete<crashpad::CrashReportDatabase>>&)
FUNC 6fa0 1b 0 std::_Tuple_impl<1ul, std::default_delete<crashpad::CrashReportDatabase> >::_M_head(std::_Tuple_impl<1ul, std::default_delete<crashpad::CrashReportDatabase> >&)
FUNC 6fc0 11 0 std::_Head_base<1ul, std::default_delete<crashpad::CrashReportDatabase>, true>::_M_head(std::_Head_base<1ul, std::default_delete<crashpad::CrashReportDatabase>, true>&)
FUNC 6fe0 27 0 std::unique_ptr<crashpad::CrashReportDatabase, std::default_delete<crashpad::CrashReportDatabase> >::operator bool() const
FUNC 7010 35 0 std::unique_ptr<crashpad::CrashReportDatabase, std::default_delete<crashpad::CrashReportDatabase> >::get() const
FUNC 7050 1e 0 std::__uniq_ptr_impl<crashpad::CrashReportDatabase, std::default_delete<crashpad::CrashReportDatabase> >::_M_ptr() const
FUNC 7070 1b 0 std::tuple_element<0ul, std::tuple<crashpad::CrashReportDatabase*, std::default_delete<crashpad::CrashReportDatabase> > >::type const& std::get<0ul, crashpad::CrashReportDatabase*, std::default_delete<crashpad::CrashReportDatabase> >(std::tuple<crashpad::CrashReportDatabase*, std::default_delete<crashpad::CrashReportDatabase> > const&)
FUNC 7090 1b 0 crashpad::CrashReportDatabase* const& std::__get_helper<0ul, crashpad::CrashReportDatabase*, std::default_delete<crashpad::CrashReportDatabase> >(std::_Tuple_impl<0ul, crashpad::CrashReportDatabase*, std::default_delete<crashpad::CrashReportDatabase> > const&)
FUNC 70b0 1b 0 std::_Tuple_impl<0ul, crashpad::CrashReportDatabase*, std::default_delete<crashpad::CrashReportDatabase> >::_M_head(std::_Tuple_impl<0ul, crashpad::CrashReportDatabase*, std::default_delete<crashpad::CrashReportDatabase> > const&)
FUNC 70d0 e 0 std::_Head_base<0ul, crashpad::CrashReportDatabase*, false>::_M_head(std::_Head_base<0ul, crashpad::CrashReportDatabase*, false> const&)
PUBLIC 2ed0 0 _init
PUBLIC 3740 0 _start
PUBLIC 3770 0 _dl_relocate_static_pie
PUBLIC 3780 0 deregister_tm_clones
PUBLIC 37b0 0 register_tm_clones
PUBLIC 37f0 0 __do_global_dtors_aux
PUBLIC 3820 0 frame_dummy
PUBLIC 3830 0 main
PUBLIC 3890 0 initializeCrashpad()
PUBLIC 4290 0 crash()
PUBLIC 42a0 0 getExecutableDir[abi:cxx11]()
PUBLIC 4310 0 std::__cxx11::basic_string<char, std::char_traits<char>, std::allocator<char> > std::operator+<char, std::char_traits<char>, std::allocator<char> >(std::__cxx11::basic_string<char, std::char_traits<char>, std::allocator<char> > const&, char const*)
PUBLIC 43a0 0 std::map<std::__cxx11::basic_string<char, std::char_traits<char>, std::allocator<char> >, std::__cxx11::basic_string<char, std::char_traits<char>, std::allocator<char> >, std::less<std::__cxx11::basic_string<char, std::char_traits<char>, std::allocator<char> > >, std::allocator<std::pair<std::__cxx11::basic_string<char, std::char_traits<char>, std::allocator<char> > const, std::__cxx11::basic_string<char, std::char_traits<char>, std::allocator<char> > > > >::map()
PUBLIC 43c0 0 std::map<std::__cxx11::basic_string<char, std::char_traits<char>, std::allocator<char> >, std::__cxx11::basic_string<char, std::char_traits<char>, std::allocator<char> >, std::less<std::__cxx11::basic_string<char, std::char_traits<char>, std::allocator<char> > >, std::allocator<std::pair<std::__cxx11::basic_string<char, std::char_traits<char>, std::allocator<char> > const, std::__cxx11::basic_string<char, std::char_traits<char>, std::allocator<char> > > > >::operator[](std::__cxx11::basic_string<char, std::char_traits<char>, std::allocator<char> >&&)
PUBLIC 44c0 0 std::vector<std::__cxx11::basic_string<char, std::char_traits<char>, std::allocator<char> >, std::allocator<std::__cxx11::basic_string<char, std::char_traits<char>, std::allocator<char> > > >::vector()
PUBLIC 44f0 0 std::vector<std::__cxx11::basic_string<char, std::char_traits<char>, std::allocator<char> >, std::allocator<std::__cxx11::basic_string<char, std::char_traits<char>, std::allocator<char> > > >::push_back(std::__cxx11::basic_string<char, std::char_traits<char>, std::allocator<char> >&&)
PUBLIC 4530 0 bool std::operator==<crashpad::CrashReportDatabase, std::default_delete<crashpad::CrashReportDatabase> >(std::unique_ptr<crashpad::CrashReportDatabase, std::default_delete<crashpad::CrashReportDatabase> > const&, decltype(nullptr))
PUBLIC 4560 0 std::unique_ptr<crashpad::CrashReportDatabase, std::default_delete<crashpad::CrashReportDatabase> >::operator->() const
PUBLIC 4580 0 std::unique_ptr<crashpad::CrashReportDatabase, std::default_delete<crashpad::CrashReportDatabase> >::~unique_ptr()
PUBLIC 4600 0 std::vector<std::__cxx11::basic_string<char, std::char_traits<char>, std::allocator<char> >, std::allocator<std::__cxx11::basic_string<char, std::char_traits<char>, std::allocator<char> > > >::~vector()
PUBLIC 4670 0 std::map<std::__cxx11::basic_string<char, std::char_traits<char>, std::allocator<char> >, std::__cxx11::basic_string<char, std::char_traits<char>, std::allocator<char> >, std::less<std::__cxx11::basic_string<char, std::char_traits<char>, std::allocator<char> > >, std::allocator<std::pair<std::__cxx11::basic_string<char, std::char_traits<char>, std::allocator<char> > const, std::__cxx11::basic_string<char, std::char_traits<char>, std::allocator<char> > > > >::~map()
PUBLIC 4690 0 std::_Rb_tree<std::__cxx11::basic_string<char, std::char_traits<char>, std::allocator<char> >, std::pair<std::__cxx11::basic_string<char, std::char_traits<char>, std::allocator<char> > const, std::__cxx11::basic_string<char, std::char_traits<char>, std::allocator<char> > >, std::_Select1st<std::pair<std::__cxx11::basic_string<char, std::char_traits<char>, std::allocator<char> > const, std::__cxx11::basic_string<char, std::char_traits<char>, std::allocator<char> > > >, std::less<std::__cxx11::basic_string<char, std::char_traits<char>, std::allocator<char> > >, std::allocator<std::pair<std::__cxx11::basic_string<char, std::char_traits<char>, std::allocator<char> > const, std::__cxx11::basic_string<char, std::char_traits<char>, std::allocator<char> > > > >::_Rb_tree()
PUBLIC 46b0 0 std::_Rb_tree<std::__cxx11::basic_string<char, std::char_traits<char>, std::allocator<char> >, std::pair<std::__cxx11::basic_string<char, std::char_traits<char>, std::allocator<char> > const, std::__cxx11::basic_string<char, std::char_traits<char>, std::allocator<char> > >, std::_Select1st<std::pair<std::__cxx11::basic_string<char, std::char_traits<char>, std::allocator<char> > const, std::__cxx11::basic_string<char, std::char_traits<char>, std::allocator<char> > > >, std::less<std::__cxx11::basic_string<char, std::char_traits<char>, std::allocator<char> > >, std::allocator<std::pair<std::__cxx11::basic_string<char, std::char_traits<char>, std::allocator<char> > const, std::__cxx11::basic_string<char, std::char_traits<char>, std::allocator<char> > > > >::_Rb_tree_impl<std::less<std::__cxx11::basic_string<char, std::char_traits<char>, std::allocator<char> > >, true>::_Rb_tree_impl()
PUBLIC 4700 0 std::allocator<std::_Rb_tree_node<std::pair<std::__cxx11::basic_string<char, std::char_traits<char>, std::allocator<char> > const, std::__cxx11::basic_string<char, std::char_traits<char>, std::allocator<char> > > > >::allocator()
PUBLIC 4720 0 std::_Rb_tree_key_compare<std::less<std::__cxx11::basic_string<char, std::char_traits<char>, std::allocator<char> > > >::_Rb_tree_key_compare()
PUBLIC 4730 0 std::_Rb_tree_header::_Rb_tree_header()
PUBLIC 4770 0 __gnu_cxx::new_allocator<std::_Rb_tree_node<std::pair<std::__cxx11::basic_string<char, std::char_traits<char>, std::allocator<char> > const, std::__cxx11::basic_string<char, std::char_traits<char>, std::allocator<char> > > > >::new_allocator()
PUBLIC 4780 0 std::_Rb_tree_header::_M_reset()
PUBLIC 47b0 0 __clang_call_terminate
PUBLIC 47c0 0 std::_Rb_tree<std::__cxx11::basic_string<char, std::char_traits<char>, std::allocator<char> >, std::pair<std::__cxx11::basic_string<char, std::char_traits<char>, std::allocator<char> > const, std::__cxx11::basic_string<char, std::char_traits<char>, std::allocator<char> > >, std::_Select1st<std::pair<std::__cxx11::basic_string<char, std::char_traits<char>, std::allocator<char> > const, std::__cxx11::basic_string<char, std::char_traits<char>, std::allocator<char> > > >, std::less<std::__cxx11::basic_string<char, std::char_traits<char>, std::allocator<char> > >, std::allocator<std::pair<std::__cxx11::basic_string<char, std::char_traits<char>, std::allocator<char> > const, std::__cxx11::basic_string<char, std::char_traits<char>, std::allocator<char> > > > >::~_Rb_tree()
PUBLIC 4820 0 std::_Rb_tree<std::__cxx11::basic_string<char, std::char_traits<char>, std::allocator<char> >, std::pair<std::__cxx11::basic_string<char, std::char_traits<char>, std::allocator<char> > const, std::__cxx11::basic_string<char, std::char_traits<char>, std::allocator<char> > >, std::_Select1st<std::pair<std::__cxx11::basic_string<char, std::char_traits<char>, std::allocator<char> > const, std::__cxx11::basic_string<char, std::char_traits<char>, std::allocator<char> > > >, std::less<std::__cxx11::basic_string<char, std::char_traits<char>, std::allocator<char> > >, std::allocator<std::pair<std::__cxx11::basic_string<char, std::char_traits<char>, std::allocator<char> > const, std::__cxx11::basic_string<char, std::char_traits<char>, std::allocator<char> > > > >::_M_erase(std::_Rb_tree_node<std::pair<std::__cxx11::basic_string<char, std::char_traits<char>, std::allocator<char> > const, std::__cxx11::basic_string<char, std::char_traits<char>, std::allocator<char> > > >*)
PUBLIC 4890 0 std::_Rb_tree<std::__cxx11::basic_string<char, std::char_traits<char>, std::allocator<char> >, std::pair<std::__cxx11::basic_string<char, std::char_traits<char>, std::allocator<char> > const, std::__cxx11::basic_string<char, std::char_traits<char>, std::allocator<char> > >, std::_Select1st<std::pair<std::__cxx11::basic_string<char, std::char_traits<char>, std::allocator<char> > const, std::__cxx11::basic_string<char, std::char_traits<char>, std::allocator<char> > > >, std::less<std::__cxx11::basic_string<char, std::char_traits<char>, std::allocator<char> > >, std::allocator<std::pair<std::__cxx11::basic_string<char, std::char_traits<char>, std::allocator<char> > const, std::__cxx11::basic_string<char, std::char_traits<char>, std::allocator<char> > > > >::_M_begin()
PUBLIC 48b0 0 std::_Rb_tree<std::__cxx11::basic_string<char, std::char_traits<char>, std::allocator<char> >, std::pair<std::__cxx11::basic_string<char, std::char_traits<char>, std::allocator<char> > const, std::__cxx11::basic_string<char, std::char_traits<char>, std::allocator<char> > >, std::_Select1st<std::pair<std::__cxx11::basic_string<char, std::char_traits<char>, std::allocator<char> > const, std::__cxx11::basic_string<char, std::char_traits<char>, std::allocator<char> > > >, std::less<std::__cxx11::basic_string<char, std::char_traits<char>, std::allocator<char> > >, std::allocator<std::pair<std::__cxx11::basic_string<char, std::char_traits<char>, std::allocator<char> > const, std::__cxx11::basic_string<char, std::char_traits<char>, std::allocator<char> > > > >::_Rb_tree_impl<std::less<std::__cxx11::basic_string<char, std::char_traits<char>, std::allocator<char> > >, true>::~_Rb_tree_impl()
PUBLIC 48d0 0 std::_Rb_tree<std::__cxx11::basic_string<char, std::char_traits<char>, std::allocator<char> >, std::pair<std::__cxx11::basic_string<char, std::char_traits<char>, std::allocator<char> > const, std::__cxx11::basic_string<char, std::char_traits<char>, std::allocator<char> > >, std::_Select1st<std::pair<std::__cxx11::basic_string<char, std::char_traits<char>, std::allocator<char> > const, std::__cxx11::basic_string<char, std::char_traits<char>, std::allocator<char> > > >, std::less<std::__cxx11::basic_string<char, std::char_traits<char>, std::allocator<char> > >, std::allocator<std::pair<std::__cxx11::basic_string<char, std::char_traits<char>, std::allocator<char> > const, std::__cxx11::basic_string<char, std::char_traits<char>, std::allocator<char> > > > >::_S_right(std::_Rb_tree_node_base*)
PUBLIC 48f0 0 std::_Rb_tree<std::__cxx11::basic_string<char, std::char_traits<char>, std::allocator<char> >, std::pair<std::__cxx11::basic_string<char, std::char_traits<char>, std::allocator<char> > const, std::__cxx11::basic_string<char, std::char_traits<char>, std::allocator<char> > >, std::_Select1st<std::pair<std::__cxx11::basic_string<char, std::char_traits<char>, std::allocator<char> > const, std::__cxx11::basic_string<char, std::char_traits<char>, std::allocator<char> > > >, std::less<std::__cxx11::basic_string<char, std::char_traits<char>, std::allocator<char> > >, std::allocator<std::pair<std::__cxx11::basic_string<char, std::char_traits<char>, std::allocator<char> > const, std::__cxx11::basic_string<char, std::char_traits<char>, std::allocator<char> > > > >::_S_left(std::_Rb_tree_node_base*)
PUBLIC 4910 0 std::_Rb_tree<std::__cxx11::basic_string<char, std::char_traits<char>, std::allocator<char> >, std::pair<std::__cxx11::basic_string<char, std::char_traits<char>, std::allocator<char> > const, std::__cxx11::basic_string<char, std::char_traits<char>, std::allocator<char> > >, std::_Select1st<std::pair<std::__cxx11::basic_string<char, std::char_traits<char>, std::allocator<char> > const, std::__cxx11::basic_string<char, std::char_traits<char>, std::allocator<char> > > >, std::less<std::__cxx11::basic_string<char, std::char_traits<char>, std::allocator<char> > >, std::allocator<std::pair<std::__cxx11::basic_string<char, std::char_traits<char>, std::allocator<char> > const, std::__cxx11::basic_string<char, std::char_traits<char>, std::allocator<char> > > > >::_M_drop_node(std::_Rb_tree_node<std::pair<std::__cxx11::basic_string<char, std::char_traits<char>, std::allocator<char> > const, std::__cxx11::basic_string<char, std::char_traits<char>, std::allocator<char> > > >*)
PUBLIC 4960 0 std::_Rb_tree<std::__cxx11::basic_string<char, std::char_traits<char>, std::allocator<char> >, std::pair<std::__cxx11::basic_string<char, std::char_traits<char>, std::allocator<char> > const, std::__cxx11::basic_string<char, std::char_traits<char>, std::allocator<char> > >, std::_Select1st<std::pair<std::__cxx11::basic_string<char, std::char_traits<char>, std::allocator<char> > const, std::__cxx11::basic_string<char, std::char_traits<char>, std::allocator<char> > > >, std::less<std::__cxx11::basic_string<char, std::char_traits<char>, std::allocator<char> > >, std::allocator<std::pair<std::__cxx11::basic_string<char, std::char_traits<char>, std::allocator<char> > const, std::__cxx11::basic_string<char, std::char_traits<char>, std::allocator<char> > > > >::_M_destroy_node(std::_Rb_tree_node<std::pair<std::__cxx11::basic_string<char, std::char_traits<char>, std::allocator<char> > const, std::__cxx11::basic_string<char, std::char_traits<char>, std::allocator<char> > > >*)
PUBLIC 49c0 0 std::_Rb_tree<std::__cxx11::basic_string<char, std::char_traits<char>, std::allocator<char> >, std::pair<std::__cxx11::basic_string<char, std::char_traits<char>, std::allocator<char> > const, std::__cxx11::basic_string<char, std::char_traits<char>, std::allocator<char> > >, std::_Select1st<std::pair<std::__cxx11::basic_string<char, std::char_traits<char>, std::allocator<char> > const, std::__cxx11::basic_string<char, std::char_traits<char>, std::allocator<char> > > >, std::less<std::__cxx11::basic_string<char, std::char_traits<char>, std::allocator<char> > >, std::allocator<std::pair<std::__cxx11::basic_string<char, std::char_traits<char>, std::allocator<char> > const, std::__cxx11::basic_string<char, std::char_traits<char>, std::allocator<char> > > > >::_M_put_node(std::_Rb_tree_node<std::pair<std::__cxx11::basic_string<char, std::char_traits<char>, std::allocator<char> > const, std::__cxx11::basic_string<char, std::char_traits<char>, std::allocator<char> > > >*)
PUBLIC 4a10 0 void std::allocator_traits<std::allocator<std::_Rb_tree_node<std::pair<std::__cxx11::basic_string<char, std::char_traits<char>, std::allocator<char> > const, std::__cxx11::basic_string<char, std::char_traits<char>, std::allocator<char> > > > > >::destroy<std::pair<std::__cxx11::basic_string<char, std::char_traits<char>, std::allocator<char> > const, std::__cxx11::basic_string<char, std::char_traits<char>, std::allocator<char> > > >(std::allocator<std::_Rb_tree_node<std::pair<std::__cxx11::basic_string<char, std::char_traits<char>, std::allocator<char> > const, std::__cxx11::basic_string<char, std::char_traits<char>, std::allocator<char> > > > >&, std::pair<std::__cxx11::basic_string<char, std::char_traits<char>, std::allocator<char> > const, std::__cxx11::basic_string<char, std::char_traits<char>, std::allocator<char> > >*)
PUBLIC 4a40 0 std::_Rb_tree<std::__cxx11::basic_string<char, std::char_traits<char>, std::allocator<char> >, std::pair<std::__cxx11::basic_string<char, std::char_traits<char>, std::allocator<char> > const, std::__cxx11::basic_string<char, std::char_traits<char>, std::allocator<char> > >, std::_Select1st<std::pair<std::__cxx11::basic_string<char, std::char_traits<char>, std::allocator<char> > const, std::__cxx11::basic_string<char, std::char_traits<char>, std::allocator<char> > > >, std::less<std::__cxx11::basic_string<char, std::char_traits<char>, std::allocator<char> > >, std::allocator<std::pair<std::__cxx11::basic_string<char, std::char_traits<char>, std::allocator<char> > const, std::__cxx11::basic_string<char, std::char_traits<char>, std::allocator<char> > > > >::_M_get_Node_allocator()
PUBLIC 4a60 0 std::_Rb_tree_node<std::pair<std::__cxx11::basic_string<char, std::char_traits<char>, std::allocator<char> > const, std::__cxx11::basic_string<char, std::char_traits<char>, std::allocator<char> > > >::_M_valptr()
PUBLIC 4a80 0 void __gnu_cxx::new_allocator<std::_Rb_tree_node<std::pair<std::__cxx11::basic_string<char, std::char_traits<char>, std::allocator<char> > const, std::__cxx11::basic_string<char, std::char_traits<char>, std::allocator<char> > > > >::destroy<std::pair<std::__cxx11::basic_string<char, std::char_traits<char>, std::allocator<char> > const, std::__cxx11::basic_string<char, std::char_traits<char>, std::allocator<char> > > >(std::pair<std::__cxx11::basic_string<char, std::char_traits<char>, std::allocator<char> > const, std::__cxx11::basic_string<char, std::char_traits<char>, std::allocator<char> > >*)
PUBLIC 4aa0 0 std::pair<std::__cxx11::basic_string<char, std::char_traits<char>, std::allocator<char> > const, std::__cxx11::basic_string<char, std::char_traits<char>, std::allocator<char> > >::~pair()
PUBLIC 4ae0 0 __gnu_cxx::__aligned_membuf<std::pair<std::__cxx11::basic_string<char, std::char_traits<char>, std::allocator<char> > const, std::__cxx11::basic_string<char, std::char_traits<char>, std::allocator<char> > > >::_M_ptr()
PUBLIC 4b00 0 __gnu_cxx::__aligned_membuf<std::pair<std::__cxx11::basic_string<char, std::char_traits<char>, std::allocator<char> > const, std::__cxx11::basic_string<char, std::char_traits<char>, std::allocator<char> > > >::_M_addr()
PUBLIC 4b20 0 std::allocator_traits<std::allocator<std::_Rb_tree_node<std::pair<std::__cxx11::basic_string<char, std::char_traits<char>, std::allocator<char> > const, std::__cxx11::basic_string<char, std::char_traits<char>, std::allocator<char> > > > > >::deallocate(std::allocator<std::_Rb_tree_node<std::pair<std::__cxx11::basic_string<char, std::char_traits<char>, std::allocator<char> > const, std::__cxx11::basic_string<char, std::char_traits<char>, std::allocator<char> > > > >&, std::_Rb_tree_node<std::pair<std::__cxx11::basic_string<char, std::char_traits<char>, std::allocator<char> > const, std::__cxx11::basic_string<char, std::char_traits<char>, std::allocator<char> > > >*, unsigned long)
PUBLIC 4b60 0 __gnu_cxx::new_allocator<std::_Rb_tree_node<std::pair<std::__cxx11::basic_string<char, std::char_traits<char>, std::allocator<char> > const, std::__cxx11::basic_string<char, std::char_traits<char>, std::allocator<char> > > > >::deallocate(std::_Rb_tree_node<std::pair<std::__cxx11::basic_string<char, std::char_traits<char>, std::allocator<char> > const, std::__cxx11::basic_string<char, std::char_traits<char>, std::allocator<char> > > >*, unsigned long)
PUBLIC 4b90 0 std::allocator<std::_Rb_tree_node<std::pair<std::__cxx11::basic_string<char, std::char_traits<char>, std::allocator<char> > const, std::__cxx11::basic_string<char, std::char_traits<char>, std::allocator<char> > > > >::~allocator()
PUBLIC 4bb0 0 __gnu_cxx::new_allocator<std::_Rb_tree_node<std::pair<std::__cxx11::basic_string<char, std::char_traits<char>, std::allocator<char> > const, std::__cxx11::basic_string<char, std::char_traits<char>, std::allocator<char> > > > >::~new_allocator()
PUBLIC 4bc0 0 std::map<std::__cxx11::basic_string<char, std::char_traits<char>, std::allocator<char> >, std::__cxx11::basic_string<char, std::char_traits<char>, std::allocator<char> >, std::less<std::__cxx11::basic_string<char, std::char_traits<char>, std::allocator<char> > >, std::allocator<std::pair<std::__cxx11::basic_string<char, std::char_traits<char>, std::allocator<char> > const, std::__cxx11::basic_string<char, std::char_traits<char>, std::allocator<char> > > > >::lower_bound(std::__cxx11::basic_string<char, std::char_traits<char>, std::allocator<char> > const&)
PUBLIC 4bf0 0 std::_Rb_tree_iterator<std::pair<std::__cxx11::basic_string<char, std::char_traits<char>, std::allocator<char> > const, std::__cxx11::basic_string<char, std::char_traits<char>, std::allocator<char> > > >::operator==(std::_Rb_tree_iterator<std::pair<std::__cxx11::basic_string<char, std::char_traits<char>, std::allocator<char> > const, std::__cxx11::basic_string<char, std::char_traits<char>, std::allocator<char> > > > const&) const
PUBLIC 4c20 0 std::map<std::__cxx11::basic_string<char, std::char_traits<char>, std::allocator<char> >, std::__cxx11::basic_string<char, std::char_traits<char>, std::allocator<char> >, std::less<std::__cxx11::basic_string<char, std::char_traits<char>, std::allocator<char> > >, std::allocator<std::pair<std::__cxx11::basic_string<char, std::char_traits<char>, std::allocator<char> > const, std::__cxx11::basic_string<char, std::char_traits<char>, std::allocator<char> > > > >::end()
PUBLIC 4c50 0 std::map<std::__cxx11::basic_string<char, std::char_traits<char>, std::allocator<char> >, std::__cxx11::basic_string<char, std::char_traits<char>, std::allocator<char> >, std::less<std::__cxx11::basic_string<char, std::char_traits<char>, std::allocator<char> > >, std::allocator<std::pair<std::__cxx11::basic_string<char, std::char_traits<char>, std::allocator<char> > const, std::__cxx11::basic_string<char, std::char_traits<char>, std::allocator<char> > > > >::key_comp() const
PUBLIC 4c70 0 std::less<std::__cxx11::basic_string<char, std::char_traits<char>, std::allocator<char> > >::operator()(std::__cxx11::basic_string<char, std::char_traits<char>, std::allocator<char> > const&, std::__cxx11::basic_string<char, std::char_traits<char>, std::allocator<char> > const&) const
PUBLIC 4ca0 0 std::_Rb_tree_iterator<std::pair<std::__cxx11::basic_string<char, std::char_traits<char>, std::allocator<char> > const, std::__cxx11::basic_string<char, std::char_traits<char>, std::allocator<char> > > >::operator*() const
PUBLIC 4ce0 0 std::_Rb_tree_iterator<std::pair<std::__cxx11::basic_string<char, std::char_traits<char>, std::allocator<char> > const, std::__cxx11::basic_string<char, std::char_traits<char>, std::allocator<char> > > > std::_Rb_tree<std::__cxx11::basic_string<char, std::char_traits<char>, std::allocator<char> >, std::pair<std::__cxx11::basic_string<char, std::char_traits<char>, std::allocator<char> > const, std::__cxx11::basic_string<char, std::char_traits<char>, std::allocator<char> > >, std::_Select1st<std::pair<std::__cxx11::basic_string<char, std::char_traits<char>, std::allocator<char> > const, std::__cxx11::basic_string<char, std::char_traits<char>, std::allocator<char> > > >, std::less<std::__cxx11::basic_string<char, std::char_traits<char>, std::allocator<char> > >, std::allocator<std::pair<std::__cxx11::basic_string<char, std::char_traits<char>, std::allocator<char> > const, std::__cxx11::basic_string<char, std::char_traits<char>, std::allocator<char> > > > >::_M_emplace_hint_unique<std::piecewise_construct_t const&, std::tuple<std::__cxx11::basic_string<char, std::char_traits<char>, std::allocator<char> >&&>, std::tuple<> >(std::_Rb_tree_const_iterator<std::pair<std::__cxx11::basic_string<char, std::char_traits<char>, std::allocator<char> > const, std::__cxx11::basic_string<char, std::char_traits<char>, std::allocator<char> > > >, std::piecewise_construct_t const&, std::tuple<std::__cxx11::basic_string<char, std::char_traits<char>, std::allocator<char> >&&>&&, std::tuple<>&&)
PUBLIC 4e60 0 std::_Rb_tree_const_iterator<std::pair<std::__cxx11::basic_string<char, std::char_traits<char>, std::allocator<char> > const, std::__cxx11::basic_string<char, std::char_traits<char>, std::allocator<char> > > >::_Rb_tree_const_iterator(std::_Rb_tree_iterator<std::pair<std::__cxx11::basic_string<char, std::char_traits<char>, std::allocator<char> > const, std::__cxx11::basic_string<char, std::char_traits<char>, std::allocator<char> > > > const&)
PUBLIC 4e80 0 std::tuple<std::__cxx11::basic_string<char, std::char_traits<char>, std::allocator<char> >&&> std::forward_as_tuple<std::__cxx11::basic_string<char, std::char_traits<char>, std::allocator<char> > >(std::__cxx11::basic_string<char, std::char_traits<char>, std::allocator<char> >&&)
PUBLIC 4ed0 0 std::remove_reference<std::__cxx11::basic_string<char, std::char_traits<char>, std::allocator<char> >&>::type&& std::move<std::__cxx11::basic_string<char, std::char_traits<char>, std::allocator<char> >&>(std::__cxx11::basic_string<char, std::char_traits<char>, std::allocator<char> >&)
PUBLIC 4ee0 0 std::_Rb_tree<std::__cxx11::basic_string<char, std::char_traits<char>, std::allocator<char> >, std::pair<std::__cxx11::basic_string<char, std::char_traits<char>, std::allocator<char> > const, std::__cxx11::basic_string<char, std::char_traits<char>, std::allocator<char> > >, std::_Select1st<std::pair<std::__cxx11::basic_string<char, std::char_traits<char>, std::allocator<char> > const, std::__cxx11::basic_string<char, std::char_traits<char>, std::allocator<char> > > >, std::less<std::__cxx11::basic_string<char, std::char_traits<char>, std::allocator<char> > >, std::allocator<std::pair<std::__cxx11::basic_string<char, std::char_traits<char>, std::allocator<char> > const, std::__cxx11::basic_string<char, std::char_traits<char>, std::allocator<char> > > > >::lower_bound(std::__cxx11::basic_string<char, std::char_traits<char>, std::allocator<char> > const&)
PUBLIC 4f30 0 std::_Rb_tree<std::__cxx11::basic_string<char, std::char_traits<char>, std::allocator<char> >, std::pair<std::__cxx11::basic_string<char, std::char_traits<char>, std::allocator<char> > const, std::__cxx11::basic_string<char, std::char_traits<char>, std::allocator<char> > >, std::_Select1st<std::pair<std::__cxx11::basic_string<char, std::char_traits<char>, std::allocator<char> > const, std::__cxx11::basic_string<char, std::char_traits<char>, std::allocator<char> > > >, std::less<std::__cxx11::basic_string<char, std::char_traits<char>, std::allocator<char> > >, std::allocator<std::pair<std::__cxx11::basic_string<char, std::char_traits<char>, std::allocator<char> > const, std::__cxx11::basic_string<char, std::char_traits<char>, std::allocator<char> > > > >::_M_lower_bound(std::_Rb_tree_node<std::pair<std::__cxx11::basic_string<char, std::char_traits<char>, std::allocator<char> > const, std::__cxx11::basic_string<char, std::char_traits<char>, std::allocator<char> > > >*, std::_Rb_tree_node_base*, std::__cxx11::basic_string<char, std::char_traits<char>, std::allocator<char> > const&)
PUBLIC 4fd0 0 std::_Rb_tree<std::__cxx11::basic_string<char, std::char_traits<char>, std::allocator<char> >, std::pair<std::__cxx11::basic_string<char, std::char_traits<char>, std::allocator<char> > const, std::__cxx11::basic_string<char, std::char_traits<char>, std::allocator<char> > >, std::_Select1st<std::pair<std::__cxx11::basic_string<char, std::char_traits<char>, std::allocator<char> > const, std::__cxx11::basic_string<char, std::char_traits<char>, std::allocator<char> > > >, std::less<std::__cxx11::basic_string<char, std::char_traits<char>, std::allocator<char> > >, std::allocator<std::pair<std::__cxx11::basic_string<char, std::char_traits<char>, std::allocator<char> > const, std::__cxx11::basic_string<char, std::char_traits<char>, std::allocator<char> > > > >::_M_end()
PUBLIC 4ff0 0 std::_Rb_tree<std::__cxx11::basic_string<char, std::char_traits<char>, std::allocator<char> >, std::pair<std::__cxx11::basic_string<char, std::char_traits<char>, std::allocator<char> > const, std::__cxx11::basic_string<char, std::char_traits<char>, std::allocator<char> > >, std::_Select1st<std::pair<std::__cxx11::basic_string<char, std::char_traits<char>, std::allocator<char> > const, std::__cxx11::basic_string<char, std::char_traits<char>, std::allocator<char> > > >, std::less<std::__cxx11::basic_string<char, std::char_traits<char>, std::allocator<char> > >, std::allocator<std::pair<std::__cxx11::basic_string<char, std::char_traits<char>, std::allocator<char> > const, std::__cxx11::basic_string<char, std::char_traits<char>, std::allocator<char> > > > >::_S_key(std::_Rb_tree_node<std::pair<std::__cxx11::basic_string<char, std::char_traits<char>, std::allocator<char> > const, std::__cxx11::basic_string<char, std::char_traits<char>, std::allocator<char> > > > const*)
PUBLIC 5020 0 std::_Rb_tree_iterator<std::pair<std::__cxx11::basic_string<char, std::char_traits<char>, std::allocator<char> > const, std::__cxx11::basic_string<char, std::char_traits<char>, std::allocator<char> > > >::_Rb_tree_iterator(std::_Rb_tree_node_base*)
PUBLIC 5040 0 std::_Select1st<std::pair<std::__cxx11::basic_string<char, std::char_traits<char>, std::allocator<char> > const, std::__cxx11::basic_string<char, std::char_traits<char>, std::allocator<char> > > >::operator()(std::pair<std::__cxx11::basic_string<char, std::char_traits<char>, std::allocator<char> > const, std::__cxx11::basic_string<char, std::char_traits<char>, std::allocator<char> > > const&) const
PUBLIC 5060 0 std::_Rb_tree<std::__cxx11::basic_string<char, std::char_traits<char>, std::allocator<char> >, std::pair<std::__cxx11::basic_string<char, std::char_traits<char>, std::allocator<char> > const, std::__cxx11::basic_string<char, std::char_traits<char>, std::allocator<char> > >, std::_Select1st<std::pair<std::__cxx11::basic_string<char, std::char_traits<char>, std::allocator<char> > const, std::__cxx11::basic_string<char, std::char_traits<char>, std::allocator<char> > > >, std::less<std::__cxx11::basic_string<char, std::char_traits<char>, std::allocator<char> > >, std::allocator<std::pair<std::__cxx11::basic_string<char, std::char_traits<char>, std::allocator<char> > const, std::__cxx11::basic_string<char, std::char_traits<char>, std::allocator<char> > > > >::_S_value(std::_Rb_tree_node<std::pair<std::__cxx11::basic_string<char, std::char_traits<char>, std::allocator<char> > const, std::__cxx11::basic_string<char, std::char_traits<char>, std::allocator<char> > > > const*)
PUBLIC 5080 0 std::_Rb_tree_node<std::pair<std::__cxx11::basic_string<char, std::char_traits<char>, std::allocator<char> > const, std::__cxx11::basic_string<char, std::char_traits<char>, std::allocator<char> > > >::_M_valptr() const
PUBLIC 50a0 0 __gnu_cxx::__aligned_membuf<std::pair<std::__cxx11::basic_string<char, std::char_traits<char>, std::allocator<char> > const, std::__cxx11::basic_string<char, std::char_traits<char>, std::allocator<char> > > >::_M_ptr() const
PUBLIC 50c0 0 __gnu_cxx::__aligned_membuf<std::pair<std::__cxx11::basic_string<char, std::char_traits<char>, std::allocator<char> > const, std::__cxx11::basic_string<char, std::char_traits<char>, std::allocator<char> > > >::_M_addr() const
PUBLIC 50e0 0 std::_Rb_tree<std::__cxx11::basic_string<char, std::char_traits<char>, std::allocator<char> >, std::pair<std::__cxx11::basic_string<char, std::char_traits<char>, std::allocator<char> > const, std::__cxx11::basic_string<char, std::char_traits<char>, std::allocator<char> > >, std::_Select1st<std::pair<std::__cxx11::basic_string<char, std::char_traits<char>, std::allocator<char> > const, std::__cxx11::basic_string<char, std::char_traits<char>, std::allocator<char> > > >, std::less<std::__cxx11::basic_string<char, std::char_traits<char>, std::allocator<char> > >, std::allocator<std::pair<std::__cxx11::basic_string<char, std::char_traits<char>, std::allocator<char> > const, std::__cxx11::basic_string<char, std::char_traits<char>, std::allocator<char> > > > >::end()
PUBLIC 5120 0 std::_Rb_tree<std::__cxx11::basic_string<char, std::char_traits<char>, std::allocator<char> >, std::pair<std::__cxx11::basic_string<char, std::char_traits<char>, std::allocator<char> > const, std::__cxx11::basic_string<char, std::char_traits<char>, std::allocator<char> > >, std::_Select1st<std::pair<std::__cxx11::basic_string<char, std::char_traits<char>, std::allocator<char> > const, std::__cxx11::basic_string<char, std::char_traits<char>, std::allocator<char> > > >, std::less<std::__cxx11::basic_string<char, std::char_traits<char>, std::allocator<char> > >, std::allocator<std::pair<std::__cxx11::basic_string<char, std::char_traits<char>, std::allocator<char> > const, std::__cxx11::basic_string<char, std::char_traits<char>, std::allocator<char> > > > >::key_comp() const
PUBLIC 5130 0 bool std::operator< <char, std::char_traits<char>, std::allocator<char> >(std::__cxx11::basic_string<char, std::char_traits<char>, std::allocator<char> > const&, std::__cxx11::basic_string<char, std::char_traits<char>, std::allocator<char> > const&)
PUBLIC 5180 0 std::_Rb_tree_node<std::pair<std::__cxx11::basic_string<char, std::char_traits<char>, std::allocator<char> > const, std::__cxx11::basic_string<char, std::char_traits<char>, std::allocator<char> > > >* std::_Rb_tree<std::__cxx11::basic_string<char, std::char_traits<char>, std::allocator<char> >, std::pair<std::__cxx11::basic_string<char, std::char_traits<char>, std::allocator<char> > const, std::__cxx11::basic_string<char, std::char_traits<char>, std::allocator<char> > >, std::_Select1st<std::pair<std::__cxx11::basic_string<char, std::char_traits<char>, std::allocator<char> > const, std::__cxx11::basic_string<char, std::char_traits<char>, std::allocator<char> > > >, std::less<std::__cxx11::basic_string<char, std::char_traits<char>, std::allocator<char> > >, std::allocator<std::pair<std::__cxx11::basic_string<char, std::char_traits<char>, std::allocator<char> > const, std::__cxx11::basic_string<char, std::char_traits<char>, std::allocator<char> > > > >::_M_create_node<std::piecewise_construct_t const&, std::tuple<std::__cxx11::basic_string<char, std::char_traits<char>, std::allocator<char> >&&>, std::tuple<> >(std::piecewise_construct_t const&, std::tuple<std::__cxx11::basic_string<char, std::char_traits<char>, std::allocator<char> >&&>&&, std::tuple<>&&)
PUBLIC 5200 0 std::piecewise_construct_t const& std::forward<std::piecewise_construct_t const&>(std::remove_reference<std::piecewise_construct_t const&>::type&)
PUBLIC 5210 0 std::tuple<std::__cxx11::basic_string<char, std::char_traits<char>, std::allocator<char> >&&>&& std::forward<std::tuple<std::__cxx11::basic_string<char, std::char_traits<char>, std::allocator<char> >&&> >(std::remove_reference<std::tuple<std::__cxx11::basic_string<char, std::char_traits<char>, std::allocator<char> >&&> >::type&)
PUBLIC 5220 0 std::tuple<>&& std::forward<std::tuple<> >(std::remove_reference<std::tuple<> >::type&)
PUBLIC 5230 0 std::_Rb_tree<std::__cxx11::basic_string<char, std::char_traits<char>, std::allocator<char> >, std::pair<std::__cxx11::basic_string<char, std::char_traits<char>, std::allocator<char> > const, std::__cxx11::basic_string<char, std::char_traits<char>, std::allocator<char> > >, std::_Select1st<std::pair<std::__cxx11::basic_string<char, std::char_traits<char>, std::allocator<char> > const, std::__cxx11::basic_string<char, std::char_traits<char>, std::allocator<char> > > >, std::less<std::__cxx11::basic_string<char, std::char_traits<char>, std::allocator<char> > >, std::allocator<std::pair<std::__cxx11::basic_string<char, std::char_traits<char>, std::allocator<char> > const, std::__cxx11::basic_string<char, std::char_traits<char>, std::allocator<char> > > > >::_M_get_insert_hint_unique_pos(std::_Rb_tree_const_iterator<std::pair<std::__cxx11::basic_string<char, std::char_traits<char>, std::allocator<char> > const, std::__cxx11::basic_string<char, std::char_traits<char>, std::allocator<char> > > >, std::__cxx11::basic_string<char, std::char_traits<char>, std::allocator<char> > const&)
PUBLIC 55b0 0 std::_Rb_tree<std::__cxx11::basic_string<char, std::char_traits<char>, std::allocator<char> >, std::pair<std::__cxx11::basic_string<char, std::char_traits<char>, std::allocator<char> > const, std::__cxx11::basic_string<char, std::char_traits<char>, std::allocator<char> > >, std::_Select1st<std::pair<std::__cxx11::basic_string<char, std::char_traits<char>, std::allocator<char> > const, std::__cxx11::basic_string<char, std::char_traits<char>, std::allocator<char> > > >, std::less<std::__cxx11::basic_string<char, std::char_traits<char>, std::allocator<char> > >, std::allocator<std::pair<std::__cxx11::basic_string<char, std::char_traits<char>, std::allocator<char> > const, std::__cxx11::basic_string<char, std::char_traits<char>, std::allocator<char> > > > >::_M_insert_node(std::_Rb_tree_node_base*, std::_Rb_tree_node_base*, std::_Rb_tree_node<std::pair<std::__cxx11::basic_string<char, std::char_traits<char>, std::allocator<char> > const, std::__cxx11::basic_string<char, std::char_traits<char>, std::allocator<char> > > >*)
PUBLIC 5690 0 std::_Rb_tree<std::__cxx11::basic_string<char, std::char_traits<char>, std::allocator<char> >, std::pair<std::__cxx11::basic_string<char, std::char_traits<char>, std::allocator<char> > const, std::__cxx11::basic_string<char, std::char_traits<char>, std::allocator<char> > >, std::_Select1st<std::pair<std::__cxx11::basic_string<char, std::char_traits<char>, std::allocator<char> > const, std::__cxx11::basic_string<char, std::char_traits<char>, std::allocator<char> > > >, std::less<std::__cxx11::basic_string<char, std::char_traits<char>, std::allocator<char> > >, std::allocator<std::pair<std::__cxx11::basic_string<char, std::char_traits<char>, std::allocator<char> > const, std::__cxx11::basic_string<char, std::char_traits<char>, std::allocator<char> > > > >::_M_get_node()
PUBLIC 56c0 0 void std::_Rb_tree<std::__cxx11::basic_string<char, std::char_traits<char>, std::allocator<char> >, std::pair<std::__cxx11::basic_string<char, std::char_traits<char>, std::allocator<char> > const, std::__cxx11::basic_string<char, std::char_traits<char>, std::allocator<char> > >, std::_Select1st<std::pair<std::__cxx11::basic_string<char, std::char_traits<char>, std::allocator<char> > const, std::__cxx11::basic_string<char, std::char_traits<char>, std::allocator<char> > > >, std::less<std::__cxx11::basic_string<char, std::char_traits<char>, std::allocator<char> > >, std::allocator<std::pair<std::__cxx11::basic_string<char, std::char_traits<char>, std::allocator<char> > const, std::__cxx11::basic_string<char, std::char_traits<char>, std::allocator<char> > > > >::_M_construct_node<std::piecewise_construct_t const&, std::tuple<std::__cxx11::basic_string<char, std::char_traits<char>, std::allocator<char> >&&>, std::tuple<> >(std::_Rb_tree_node<std::pair<std::__cxx11::basic_string<char, std::char_traits<char>, std::allocator<char> > const, std::__cxx11::basic_string<char, std::char_traits<char>, std::allocator<char> > > >*, std::piecewise_construct_t const&, std::tuple<std::__cxx11::basic_string<char, std::char_traits<char>, std::allocator<char> >&&>&&, std::tuple<>&&)
PUBLIC 57b0 0 std::allocator_traits<std::allocator<std::_Rb_tree_node<std::pair<std::__cxx11::basic_string<char, std::char_traits<char>, std::allocator<char> > const, std::__cxx11::basic_string<char, std::char_traits<char>, std::allocator<char> > > > > >::allocate(std::allocator<std::_Rb_tree_node<std::pair<std::__cxx11::basic_string<char, std::char_traits<char>, std::allocator<char> > const, std::__cxx11::basic_string<char, std::char_traits<char>, std::allocator<char> > > > >&, unsigned long)
PUBLIC 57f0 0 __gnu_cxx::new_allocator<std::_Rb_tree_node<std::pair<std::__cxx11::basic_string<char, std::char_traits<char>, std::allocator<char> > const, std::__cxx11::basic_string<char, std::char_traits<char>, std::allocator<char> > > > >::allocate(unsigned long, void const*)
PUBLIC 5840 0 __gnu_cxx::new_allocator<std::_Rb_tree_node<std::pair<std::__cxx11::basic_string<char, std::char_traits<char>, std::allocator<char> > const, std::__cxx11::basic_string<char, std::char_traits<char>, std::allocator<char> > > > >::max_size() const
PUBLIC 5860 0 void std::allocator_traits<std::allocator<std::_Rb_tree_node<std::pair<std::__cxx11::basic_string<char, std::char_traits<char>, std::allocator<char> > const, std::__cxx11::basic_string<char, std::char_traits<char>, std::allocator<char> > > > > >::construct<std::pair<std::__cxx11::basic_string<char, std::char_traits<char>, std::allocator<char> > const, std::__cxx11::basic_string<char, std::char_traits<char>, std::allocator<char> > >, std::piecewise_construct_t const&, std::tuple<std::__cxx11::basic_string<char, std::char_traits<char>, std::allocator<char> >&&>, std::tuple<> >(std::allocator<std::_Rb_tree_node<std::pair<std::__cxx11::basic_string<char, std::char_traits<char>, std::allocator<char> > const, std::__cxx11::basic_string<char, std::char_traits<char>, std::allocator<char> > > > >&, std::pair<std::__cxx11::basic_string<char, std::char_traits<char>, std::allocator<char> > const, std::__cxx11::basic_string<char, std::char_traits<char>, std::allocator<char> > >*, std::piecewise_construct_t const&, std::tuple<std::__cxx11::basic_string<char, std::char_traits<char>, std::allocator<char> >&&>&&, std::tuple<>&&)
PUBLIC 58d0 0 void __gnu_cxx::new_allocator<std::_Rb_tree_node<std::pair<std::__cxx11::basic_string<char, std::char_traits<char>, std::allocator<char> > const, std::__cxx11::basic_string<char, std::char_traits<char>, std::allocator<char> > > > >::construct<std::pair<std::__cxx11::basic_string<char, std::char_traits<char>, std::allocator<char> > const, std::__cxx11::basic_string<char, std::char_traits<char>, std::allocator<char> > >, std::piecewise_construct_t const&, std::tuple<std::__cxx11::basic_string<char, std::char_traits<char>, std::allocator<char> >&&>, std::tuple<> >(std::pair<std::__cxx11::basic_string<char, std::char_traits<char>, std::allocator<char> > const, std::__cxx11::basic_string<char, std::char_traits<char>, std::allocator<char> > >*, std::piecewise_construct_t const&, std::tuple<std::__cxx11::basic_string<char, std::char_traits<char>, std::allocator<char> >&&>&&, std::tuple<>&&)
PUBLIC 5940 0 std::tuple<std::__cxx11::basic_string<char, std::char_traits<char>, std::allocator<char> >&&>::tuple(std::tuple<std::__cxx11::basic_string<char, std::char_traits<char>, std::allocator<char> >&&>&&)
PUBLIC 5970 0 std::pair<std::__cxx11::basic_string<char, std::char_traits<char>, std::allocator<char> > const, std::__cxx11::basic_string<char, std::char_traits<char>, std::allocator<char> > >::pair<std::__cxx11::basic_string<char, std::char_traits<char>, std::allocator<char> >&&>(std::piecewise_construct_t, std::tuple<std::__cxx11::basic_string<char, std::char_traits<char>, std::allocator<char> >&&>, std::tuple<>)
PUBLIC 5990 0 std::_Tuple_impl<0ul, std::__cxx11::basic_string<char, std::char_traits<char>, std::allocator<char> >&&>::_Tuple_impl(std::_Tuple_impl<0ul, std::__cxx11::basic_string<char, std::char_traits<char>, std::allocator<char> >&&>&&)
PUBLIC 59e0 0 std::__cxx11::basic_string<char, std::char_traits<char>, std::allocator<char> >&& std::forward<std::__cxx11::basic_string<char, std::char_traits<char>, std::allocator<char> >&&>(std::remove_reference<std::__cxx11::basic_string<char, std::char_traits<char>, std::allocator<char> >&&>::type&)
PUBLIC 59f0 0 std::_Tuple_impl<0ul, std::__cxx11::basic_string<char, std::char_traits<char>, std::allocator<char> >&&>::_M_head(std::_Tuple_impl<0ul, std::__cxx11::basic_string<char, std::char_traits<char>, std::allocator<char> >&&>&)
PUBLIC 5a10 0 std::_Head_base<0ul, std::__cxx11::basic_string<char, std::char_traits<char>, std::allocator<char> >&&, false>::_Head_base<std::__cxx11::basic_string<char, std::char_traits<char>, std::allocator<char> > >(std::__cxx11::basic_string<char, std::char_traits<char>, std::allocator<char> >&&)
PUBLIC 5a40 0 std::_Head_base<0ul, std::__cxx11::basic_string<char, std::char_traits<char>, std::allocator<char> >&&, false>::_M_head(std::_Head_base<0ul, std::__cxx11::basic_string<char, std::char_traits<char>, std::allocator<char> >&&, false>&)
PUBLIC 5a60 0 std::__cxx11::basic_string<char, std::char_traits<char>, std::allocator<char> >&& std::forward<std::__cxx11::basic_string<char, std::char_traits<char>, std::allocator<char> > >(std::remove_reference<std::__cxx11::basic_string<char, std::char_traits<char>, std::allocator<char> > >::type&)
PUBLIC 5a70 0 std::pair<std::__cxx11::basic_string<char, std::char_traits<char>, std::allocator<char> > const, std::__cxx11::basic_string<char, std::char_traits<char>, std::allocator<char> > >::pair<std::__cxx11::basic_string<char, std::char_traits<char>, std::allocator<char> >&&, 0ul>(std::tuple<std::__cxx11::basic_string<char, std::char_traits<char>, std::allocator<char> >&&>&, std::tuple<>&, std::_Index_tuple<0ul>, std::_Index_tuple<>)
PUBLIC 5ac0 0 std::tuple_element<0ul, std::tuple<std::__cxx11::basic_string<char, std::char_traits<char>, std::allocator<char> >&&> >::type& std::get<0ul, std::__cxx11::basic_string<char, std::char_traits<char>, std::allocator<char> >&&>(std::tuple<std::__cxx11::basic_string<char, std::char_traits<char>, std::allocator<char> >&&>&)
PUBLIC 5ae0 0 std::__cxx11::basic_string<char, std::char_traits<char>, std::allocator<char> >& std::__get_helper<0ul, std::__cxx11::basic_string<char, std::char_traits<char>, std::allocator<char> >&&>(std::_Tuple_impl<0ul, std::__cxx11::basic_string<char, std::char_traits<char>, std::allocator<char> >&&>&)
PUBLIC 5b00 0 std::_Rb_tree_const_iterator<std::pair<std::__cxx11::basic_string<char, std::char_traits<char>, std::allocator<char> > const, std::__cxx11::basic_string<char, std::char_traits<char>, std::allocator<char> > > >::_M_const_cast() const
PUBLIC 5b30 0 std::_Rb_tree<std::__cxx11::basic_string<char, std::char_traits<char>, std::allocator<char> >, std::pair<std::__cxx11::basic_string<char, std::char_traits<char>, std::allocator<char> > const, std::__cxx11::basic_string<char, std::char_traits<char>, std::allocator<char> > >, std::_Select1st<std::pair<std::__cxx11::basic_string<char, std::char_traits<char>, std::allocator<char> > const, std::__cxx11::basic_string<char, std::char_traits<char>, std::allocator<char> > > >, std::less<std::__cxx11::basic_string<char, std::char_traits<char>, std::allocator<char> > >, std::allocator<std::pair<std::__cxx11::basic_string<char, std::char_traits<char>, std::allocator<char> > const, std::__cxx11::basic_string<char, std::char_traits<char>, std::allocator<char> > > > >::size() const
PUBLIC 5b50 0 std::_Rb_tree<std::__cxx11::basic_string<char, std::char_traits<char>, std::allocator<char> >, std::pair<std::__cxx11::basic_string<char, std::char_traits<char>, std::allocator<char> > const, std::__cxx11::basic_string<char, std::char_traits<char>, std::allocator<char> > >, std::_Select1st<std::pair<std::__cxx11::basic_string<char, std::char_traits<char>, std::allocator<char> > const, std::__cxx11::basic_string<char, std::char_traits<char>, std::allocator<char> > > >, std::less<std::__cxx11::basic_string<char, std::char_traits<char>, std::allocator<char> > >, std::allocator<std::pair<std::__cxx11::basic_string<char, std::char_traits<char>, std::allocator<char> > const, std::__cxx11::basic_string<char, std::char_traits<char>, std::allocator<char> > > > >::_S_key(std::_Rb_tree_node_base const*)
PUBLIC 5b80 0 std::_Rb_tree<std::__cxx11::basic_string<char, std::char_traits<char>, std::allocator<char> >, std::pair<std::__cxx11::basic_string<char, std::char_traits<char>, std::allocator<char> > const, std::__cxx11::basic_string<char, std::char_traits<char>, std::allocator<char> > >, std::_Select1st<std::pair<std::__cxx11::basic_string<char, std::char_traits<char>, std::allocator<char> > const, std::__cxx11::basic_string<char, std::char_traits<char>, std::allocator<char> > > >, std::less<std::__cxx11::basic_string<char, std::char_traits<char>, std::allocator<char> > >, std::allocator<std::pair<std::__cxx11::basic_string<char, std::char_traits<char>, std::allocator<char> > const, std::__cxx11::basic_string<char, std::char_traits<char>, std::allocator<char> > > > >::_M_rightmost()
PUBLIC 5ba0 0 std::pair<std::_Rb_tree_node_base*, std::_Rb_tree_node_base*>::pair<std::_Rb_tree_node_base*&, true>(std::_Rb_tree_node_base* const&, std::_Rb_tree_node_base*&)
PUBLIC 5be0 0 std::_Rb_tree<std::__cxx11::basic_string<char, std::char_traits<char>, std::allocator<char> >, std::pair<std::__cxx11::basic_string<char, std::char_traits<char>, std::allocator<char> > const, std::__cxx11::basic_string<char, std::char_traits<char>, std::allocator<char> > >, std::_Select1st<std::pair<std::__cxx11::basic_string<char, std::char_traits<char>, std::allocator<char> > const, std::__cxx11::basic_string<char, std::char_traits<char>, std::allocator<char> > > >, std::less<std::__cxx11::basic_string<char, std::char_traits<char>, std::allocator<char> > >, std::allocator<std::pair<std::__cxx11::basic_string<char, std::char_traits<char>, std::allocator<char> > const, std::__cxx11::basic_string<char, std::char_traits<char>, std::allocator<char> > > > >::_M_get_insert_unique_pos(std::__cxx11::basic_string<char, std::char_traits<char>, std::allocator<char> > const&)
PUBLIC 5d70 0 std::_Rb_tree<std::__cxx11::basic_string<char, std::char_traits<char>, std::allocator<char> >, std::pair<std::__cxx11::basic_string<char, std::char_traits<char>, std::allocator<char> > const, std::__cxx11::basic_string<char, std::char_traits<char>, std::allocator<char> > >, std::_Select1st<std::pair<std::__cxx11::basic_string<char, std::char_traits<char>, std::allocator<char> > const, std::__cxx11::basic_string<char, std::char_traits<char>, std::allocator<char> > > >, std::less<std::__cxx11::basic_string<char, std::char_traits<char>, std::allocator<char> > >, std::allocator<std::pair<std::__cxx11::basic_string<char, std::char_traits<char>, std::allocator<char> > const, std::__cxx11::basic_string<char, std::char_traits<char>, std::allocator<char> > > > >::_M_leftmost()
PUBLIC 5d90 0 std::pair<std::_Rb_tree_node_base*, std::_Rb_tree_node_base*>::pair<std::_Rb_tree_node_base*&, std::_Rb_tree_node_base*&, true>(std::_Rb_tree_node_base*&, std::_Rb_tree_node_base*&)
PUBLIC 5de0 0 std::_Rb_tree_iterator<std::pair<std::__cxx11::basic_string<char, std::char_traits<char>, std::allocator<char> > const, std::__cxx11::basic_string<char, std::char_traits<char>, std::allocator<char> > > >::operator--()
PUBLIC 5e10 0 std::_Rb_tree_iterator<std::pair<std::__cxx11::basic_string<char, std::char_traits<char>, std::allocator<char> > const, std::__cxx11::basic_string<char, std::char_traits<char>, std::allocator<char> > > >::operator++()
PUBLIC 5e40 0 std::pair<std::_Rb_tree_node_base*, std::_Rb_tree_node_base*>::pair<std::_Rb_tree_node_base*&, true>(std::_Rb_tree_node_base*&, std::_Rb_tree_node_base* const&)
PUBLIC 5e80 0 std::_Rb_tree<std::__cxx11::basic_string<char, std::char_traits<char>, std::allocator<char> >, std::pair<std::__cxx11::basic_string<char, std::char_traits<char>, std::allocator<char> > const, std::__cxx11::basic_string<char, std::char_traits<char>, std::allocator<char> > >, std::_Select1st<std::pair<std::__cxx11::basic_string<char, std::char_traits<char>, std::allocator<char> > const, std::__cxx11::basic_string<char, std::char_traits<char>, std::allocator<char> > > >, std::less<std::__cxx11::basic_string<char, std::char_traits<char>, std::allocator<char> > >, std::allocator<std::pair<std::__cxx11::basic_string<char, std::char_traits<char>, std::allocator<char> > const, std::__cxx11::basic_string<char, std::char_traits<char>, std::allocator<char> > > > >::_S_value(std::_Rb_tree_node_base const*)
PUBLIC 5ea0 0 std::_Rb_tree_node_base*& std::forward<std::_Rb_tree_node_base*&>(std::remove_reference<std::_Rb_tree_node_base*&>::type&)
PUBLIC 5eb0 0 std::_Rb_tree<std::__cxx11::basic_string<char, std::char_traits<char>, std::allocator<char> >, std::pair<std::__cxx11::basic_string<char, std::char_traits<char>, std::allocator<char> > const, std::__cxx11::basic_string<char, std::char_traits<char>, std::allocator<char> > >, std::_Select1st<std::pair<std::__cxx11::basic_string<char, std::char_traits<char>, std::allocator<char> > const, std::__cxx11::basic_string<char, std::char_traits<char>, std::allocator<char> > > >, std::less<std::__cxx11::basic_string<char, std::char_traits<char>, std::allocator<char> > >, std::allocator<std::pair<std::__cxx11::basic_string<char, std::char_traits<char>, std::allocator<char> > const, std::__cxx11::basic_string<char, std::char_traits<char>, std::allocator<char> > > > >::begin()
PUBLIC 5ee0 0 std::pair<std::_Rb_tree_node_base*, std::_Rb_tree_node_base*>::pair<std::_Rb_tree_node<std::pair<std::__cxx11::basic_string<char, std::char_traits<char>, std::allocator<char> > const, std::__cxx11::basic_string<char, std::char_traits<char>, std::allocator<char> > > >*&, std::_Rb_tree_node_base*&, true>(std::_Rb_tree_node<std::pair<std::__cxx11::basic_string<char, std::char_traits<char>, std::allocator<char> > const, std::__cxx11::basic_string<char, std::char_traits<char>, std::allocator<char> > > >*&, std::_Rb_tree_node_base*&)
PUBLIC 5f30 0 std::_Rb_tree_node<std::pair<std::__cxx11::basic_string<char, std::char_traits<char>, std::allocator<char> > const, std::__cxx11::basic_string<char, std::char_traits<char>, std::allocator<char> > > >*& std::forward<std::_Rb_tree_node<std::pair<std::__cxx11::basic_string<char, std::char_traits<char>, std::allocator<char> > const, std::__cxx11::basic_string<char, std::char_traits<char>, std::allocator<char> > > >*&>(std::remove_reference<std::_Rb_tree_node<std::pair<std::__cxx11::basic_string<char, std::char_traits<char>, std::allocator<char> > const, std::__cxx11::basic_string<char, std::char_traits<char>, std::allocator<char> > > >*&>::type&)
PUBLIC 5f40 0 std::tuple<std::__cxx11::basic_string<char, std::char_traits<char>, std::allocator<char> >&&>::tuple<std::__cxx11::basic_string<char, std::char_traits<char>, std::allocator<char> >, true>(std::__cxx11::basic_string<char, std::char_traits<char>, std::allocator<char> >&&)
PUBLIC 5f80 0 std::_Tuple_impl<0ul, std::__cxx11::basic_string<char, std::char_traits<char>, std::allocator<char> >&&>::_Tuple_impl<std::__cxx11::basic_string<char, std::char_traits<char>, std::allocator<char> > >(std::__cxx11::basic_string<char, std::char_traits<char>, std::allocator<char> >&&)
PUBLIC 5fc0 0 std::_Vector_base<std::__cxx11::basic_string<char, std::char_traits<char>, std::allocator<char> >, std::allocator<std::__cxx11::basic_string<char, std::char_traits<char>, std::allocator<char> > > >::_Vector_base()
PUBLIC 5fe0 0 std::_Vector_base<std::__cxx11::basic_string<char, std::char_traits<char>, std::allocator<char> >, std::allocator<std::__cxx11::basic_string<char, std::char_traits<char>, std::allocator<char> > > >::_Vector_impl::_Vector_impl()
PUBLIC 6020 0 std::allocator<std::__cxx11::basic_string<char, std::char_traits<char>, std::allocator<char> > >::allocator()
PUBLIC 6040 0 __gnu_cxx::new_allocator<std::__cxx11::basic_string<char, std::char_traits<char>, std::allocator<char> > >::new_allocator()
PUBLIC 6050 0 void std::_Destroy<std::__cxx11::basic_string<char, std::char_traits<char>, std::allocator<char> >*, std::__cxx11::basic_string<char, std::char_traits<char>, std::allocator<char> > >(std::__cxx11::basic_string<char, std::char_traits<char>, std::allocator<char> >*, std::__cxx11::basic_string<char, std::char_traits<char>, std::allocator<char> >*, std::allocator<std::__cxx11::basic_string<char, std::char_traits<char>, std::allocator<char> > >&)
PUBLIC 6080 0 std::_Vector_base<std::__cxx11::basic_string<char, std::char_traits<char>, std::allocator<char> >, std::allocator<std::__cxx11::basic_string<char, std::char_traits<char>, std::allocator<char> > > >::_M_get_Tp_allocator()
PUBLIC 60a0 0 std::_Vector_base<std::__cxx11::basic_string<char, std::char_traits<char>, std::allocator<char> >, std::allocator<std::__cxx11::basic_string<char, std::char_traits<char>, std::allocator<char> > > >::~_Vector_base()
PUBLIC 6100 0 void std::_Destroy<std::__cxx11::basic_string<char, std::char_traits<char>, std::allocator<char> >*>(std::__cxx11::basic_string<char, std::char_traits<char>, std::allocator<char> >*, std::__cxx11::basic_string<char, std::char_traits<char>, std::allocator<char> >*)
PUBLIC 6130 0 void std::_Destroy_aux<false>::__destroy<std::__cxx11::basic_string<char, std::char_traits<char>, std::allocator<char> >*>(std::__cxx11::basic_string<char, std::char_traits<char>, std::allocator<char> >*, std::__cxx11::basic_string<char, std::char_traits<char>, std::allocator<char> >*)
PUBLIC 6180 0 void std::_Destroy<std::__cxx11::basic_string<char, std::char_traits<char>, std::allocator<char> > >(std::__cxx11::basic_string<char, std::char_traits<char>, std::allocator<char> >*)
PUBLIC 61a0 0 std::__cxx11::basic_string<char, std::char_traits<char>, std::allocator<char> >* std::__addressof<std::__cxx11::basic_string<char, std::char_traits<char>, std::allocator<char> > >(std::__cxx11::basic_string<char, std::char_traits<char>, std::allocator<char> >&)
PUBLIC 61b0 0 std::_Vector_base<std::__cxx11::basic_string<char, std::char_traits<char>, std::allocator<char> >, std::allocator<std::__cxx11::basic_string<char, std::char_traits<char>, std::allocator<char> > > >::_M_deallocate(std::__cxx11::basic_string<char, std::char_traits<char>, std::allocator<char> >*, unsigned long)
PUBLIC 6200 0 std::_Vector_base<std::__cxx11::basic_string<char, std::char_traits<char>, std::allocator<char> >, std::allocator<std::__cxx11::basic_string<char, std::char_traits<char>, std::allocator<char> > > >::_Vector_impl::~_Vector_impl()
PUBLIC 6220 0 std::allocator_traits<std::allocator<std::__cxx11::basic_string<char, std::char_traits<char>, std::allocator<char> > > >::deallocate(std::allocator<std::__cxx11::basic_string<char, std::char_traits<char>, std::allocator<char> > >&, std::__cxx11::basic_string<char, std::char_traits<char>, std::allocator<char> >*, unsigned long)
PUBLIC 6260 0 __gnu_cxx::new_allocator<std::__cxx11::basic_string<char, std::char_traits<char>, std::allocator<char> > >::deallocate(std::__cxx11::basic_string<char, std::char_traits<char>, std::allocator<char> >*, unsigned long)
PUBLIC 6290 0 std::allocator<std::__cxx11::basic_string<char, std::char_traits<char>, std::allocator<char> > >::~allocator()
PUBLIC 62b0 0 __gnu_cxx::new_allocator<std::__cxx11::basic_string<char, std::char_traits<char>, std::allocator<char> > >::~new_allocator()
PUBLIC 62c0 0 void std::vector<std::__cxx11::basic_string<char, std::char_traits<char>, std::allocator<char> >, std::allocator<std::__cxx11::basic_string<char, std::char_traits<char>, std::allocator<char> > > >::emplace_back<std::__cxx11::basic_string<char, std::char_traits<char>, std::allocator<char> > >(std::__cxx11::basic_string<char, std::char_traits<char>, std::allocator<char> >&&)
PUBLIC 6360 0 void std::allocator_traits<std::allocator<std::__cxx11::basic_string<char, std::char_traits<char>, std::allocator<char> > > >::construct<std::__cxx11::basic_string<char, std::char_traits<char>, std::allocator<char> >, std::__cxx11::basic_string<char, std::char_traits<char>, std::allocator<char> > >(std::allocator<std::__cxx11::basic_string<char, std::char_traits<char>, std::allocator<char> > >&, std::__cxx11::basic_string<char, std::char_traits<char>, std::allocator<char> >*, std::__cxx11::basic_string<char, std::char_traits<char>, std::allocator<char> >&&)
PUBLIC 63b0 0 void std::vector<std::__cxx11::basic_string<char, std::char_traits<char>, std::allocator<char> >, std::allocator<std::__cxx11::basic_string<char, std::char_traits<char>, std::allocator<char> > > >::_M_realloc_insert<std::__cxx11::basic_string<char, std::char_traits<char>, std::allocator<char> > >(__gnu_cxx::__normal_iterator<std::__cxx11::basic_string<char, std::char_traits<char>, std::allocator<char> >*, std::vector<std::__cxx11::basic_string<char, std::char_traits<char>, std::allocator<char> >, std::allocator<std::__cxx11::basic_string<char, std::char_traits<char>, std::allocator<char> > > > >, std::__cxx11::basic_string<char, std::char_traits<char>, std::allocator<char> >&&)
PUBLIC 66c0 0 std::vector<std::__cxx11::basic_string<char, std::char_traits<char>, std::allocator<char> >, std::allocator<std::__cxx11::basic_string<char, std::char_traits<char>, std::allocator<char> > > >::end()
PUBLIC 6700 0 void __gnu_cxx::new_allocator<std::__cxx11::basic_string<char, std::char_traits<char>, std::allocator<char> > >::construct<std::__cxx11::basic_string<char, std::char_traits<char>, std::allocator<char> >, std::__cxx11::basic_string<char, std::char_traits<char>, std::allocator<char> > >(std::__cxx11::basic_string<char, std::char_traits<char>, std::allocator<char> >*, std::__cxx11::basic_string<char, std::char_traits<char>, std::allocator<char> >&&)
PUBLIC 6740 0 std::vector<std::__cxx11::basic_string<char, std::char_traits<char>, std::allocator<char> >, std::allocator<std::__cxx11::basic_string<char, std::char_traits<char>, std::allocator<char> > > >::_M_check_len(unsigned long, char const*) const
PUBLIC 6820 0 __gnu_cxx::__normal_iterator<std::__cxx11::basic_string<char, std::char_traits<char>, std::allocator<char> >*, std::vector<std::__cxx11::basic_string<char, std::char_traits<char>, std::allocator<char> >, std::allocator<std::__cxx11::basic_string<char, std::char_traits<char>, std::allocator<char> > > > >::difference_type __gnu_cxx::operator-<std::__cxx11::basic_string<char, std::char_traits<char>, std::allocator<char> >*, std::vector<std::__cxx11::basic_string<char, std::char_traits<char>, std::allocator<char> >, std::allocator<std::__cxx11::basic_string<char, std::char_traits<char>, std::allocator<char> > > > >(__gnu_cxx::__normal_iterator<std::__cxx11::basic_string<char, std::char_traits<char>, std::allocator<char> >*, std::vector<std::__cxx11::basic_string<char, std::char_traits<char>, std::allocator<char> >, std::allocator<std::__cxx11::basic_string<char, std::char_traits<char>, std::allocator<char> > > > > const&, __gnu_cxx::__normal_iterator<std::__cxx11::basic_string<char, std::char_traits<char>, std::allocator<char> >*, std::vector<std::__cxx11::basic_string<char, std::char_traits<char>, std::allocator<char> >, std::allocator<std::__cxx11::basic_string<char, std::char_traits<char>, std::allocator<char> > > > > const&)
PUBLIC 6860 0 std::vector<std::__cxx11::basic_string<char, std::char_traits<char>, std::allocator<char> >, std::allocator<std::__cxx11::basic_string<char, std::char_traits<char>, std::allocator<char> > > >::begin()
PUBLIC 6890 0 std::_Vector_base<std::__cxx11::basic_string<char, std::char_traits<char>, std::allocator<char> >, std::allocator<std::__cxx11::basic_string<char, std::char_traits<char>, std::allocator<char> > > >::_M_allocate(unsigned long)
PUBLIC 68f0 0 std::__cxx11::basic_string<char, std::char_traits<char>, std::allocator<char> >* std::__uninitialized_move_if_noexcept_a<std::__cxx11::basic_string<char, std::char_traits<char>, std::allocator<char> >*, std::__cxx11::basic_string<char, std::char_traits<char>, std::allocator<char> >*, std::allocator<std::__cxx11::basic_string<char, std::char_traits<char>, std::allocator<char> > > >(std::__cxx11::basic_string<char, std::char_traits<char>, std::allocator<char> >*, std::__cxx11::basic_string<char, std::char_traits<char>, std::allocator<char> >*, std::__cxx11::basic_string<char, std::char_traits<char>, std::allocator<char> >*, std::allocator<std::__cxx11::basic_string<char, std::char_traits<char>, std::allocator<char> > >&)
PUBLIC 6940 0 __gnu_cxx::__normal_iterator<std::__cxx11::basic_string<char, std::char_traits<char>, std::allocator<char> >*, std::vector<std::__cxx11::basic_string<char, std::char_traits<char>, std::allocator<char> >, std::allocator<std::__cxx11::basic_string<char, std::char_traits<char>, std::allocator<char> > > > >::base() const
PUBLIC 6950 0 void std::allocator_traits<std::allocator<std::__cxx11::basic_string<char, std::char_traits<char>, std::allocator<char> > > >::destroy<std::__cxx11::basic_string<char, std::char_traits<char>, std::allocator<char> > >(std::allocator<std::__cxx11::basic_string<char, std::char_traits<char>, std::allocator<char> > >&, std::__cxx11::basic_string<char, std::char_traits<char>, std::allocator<char> >*)
PUBLIC 6980 0 std::vector<std::__cxx11::basic_string<char, std::char_traits<char>, std::allocator<char> >, std::allocator<std::__cxx11::basic_string<char, std::char_traits<char>, std::allocator<char> > > >::max_size() const
PUBLIC 69b0 0 std::vector<std::__cxx11::basic_string<char, std::char_traits<char>, std::allocator<char> >, std::allocator<std::__cxx11::basic_string<char, std::char_traits<char>, std::allocator<char> > > >::size() const
PUBLIC 69d0 0 unsigned long const& std::max<unsigned long>(unsigned long const&, unsigned long const&)
PUBLIC 6a10 0 std::allocator_traits<std::allocator<std::__cxx11::basic_string<char, std::char_traits<char>, std::allocator<char> > > >::max_size(std::allocator<std::__cxx11::basic_string<char, std::char_traits<char>, std::allocator<char> > > const&)
PUBLIC 6a30 0 std::_Vector_base<std::__cxx11::basic_string<char, std::char_traits<char>, std::allocator<char> >, std::allocator<std::__cxx11::basic_string<char, std::char_traits<char>, std::allocator<char> > > >::_M_get_Tp_allocator() const
PUBLIC 6a50 0 __gnu_cxx::new_allocator<std::__cxx11::basic_string<char, std::char_traits<char>, std::allocator<char> > >::max_size() const
PUBLIC 6a70 0 __gnu_cxx::__normal_iterator<std::__cxx11::basic_string<char, std::char_traits<char>, std::allocator<char> >*, std::vector<std::__cxx11::basic_string<char, std::char_traits<char>, std::allocator<char> >, std::allocator<std::__cxx11::basic_string<char, std::char_traits<char>, std::allocator<char> > > > >::__normal_iterator(std::__cxx11::basic_string<char, std::char_traits<char>, std::allocator<char> >* const&)
PUBLIC 6a90 0 std::allocator_traits<std::allocator<std::__cxx11::basic_string<char, std::char_traits<char>, std::allocator<char> > > >::allocate(std::allocator<std::__cxx11::basic_string<char, std::char_traits<char>, std::allocator<char> > >&, unsigned long)
PUBLIC 6ad0 0 __gnu_cxx::new_allocator<std::__cxx11::basic_string<char, std::char_traits<char>, std::allocator<char> > >::allocate(unsigned long, void const*)
PUBLIC 6b20 0 std::__cxx11::basic_string<char, std::char_traits<char>, std::allocator<char> >* std::__uninitialized_copy_a<std::move_iterator<std::__cxx11::basic_string<char, std::char_traits<char>, std::allocator<char> >*>, std::__cxx11::basic_string<char, std::char_traits<char>, std::allocator<char> >*, std::__cxx11::basic_string<char, std::char_traits<char>, std::allocator<char> > >(std::move_iterator<std::__cxx11::basic_string<char, std::char_traits<char>, std::allocator<char> >*>, std::move_iterator<std::__cxx11::basic_string<char, std::char_traits<char>, std::allocator<char> >*>, std::__cxx11::basic_string<char, std::char_traits<char>, std::allocator<char> >*, std::allocator<std::__cxx11::basic_string<char, std::char_traits<char>, std::allocator<char> > >&)
PUBLIC 6b60 0 std::move_iterator<std::__cxx11::basic_string<char, std::char_traits<char>, std::allocator<char> >*> std::__make_move_if_noexcept_iterator<std::__cxx11::basic_string<char, std::char_traits<char>, std::allocator<char> >, std::move_iterator<std::__cxx11::basic_string<char, std::char_traits<char>, std::allocator<char> >*> >(std::__cxx11::basic_string<char, std::char_traits<char>, std::allocator<char> >*)
PUBLIC 6b90 0 std::__cxx11::basic_string<char, std::char_traits<char>, std::allocator<char> >* std::uninitialized_copy<std::move_iterator<std::__cxx11::basic_string<char, std::char_traits<char>, std::allocator<char> >*>, std::__cxx11::basic_string<char, std::char_traits<char>, std::allocator<char> >*>(std::move_iterator<std::__cxx11::basic_string<char, std::char_traits<char>, std::allocator<char> >*>, std::move_iterator<std::__cxx11::basic_string<char, std::char_traits<char>, std::allocator<char> >*>, std::__cxx11::basic_string<char, std::char_traits<char>, std::allocator<char> >*)
PUBLIC 6bd0 0 std::__cxx11::basic_string<char, std::char_traits<char>, std::allocator<char> >* std::__uninitialized_copy<false>::__uninit_copy<std::move_iterator<std::__cxx11::basic_string<char, std::char_traits<char>, std::allocator<char> >*>, std::__cxx11::basic_string<char, std::char_traits<char>, std::allocator<char> >*>(std::move_iterator<std::__cxx11::basic_string<char, std::char_traits<char>, std::allocator<char> >*>, std::move_iterator<std::__cxx11::basic_string<char, std::char_traits<char>, std::allocator<char> >*>, std::__cxx11::basic_string<char, std::char_traits<char>, std::allocator<char> >*)
PUBLIC 6ce0 0 bool std::operator!=<std::__cxx11::basic_string<char, std::char_traits<char>, std::allocator<char> >*>(std::move_iterator<std::__cxx11::basic_string<char, std::char_traits<char>, std::allocator<char> >*> const&, std::move_iterator<std::__cxx11::basic_string<char, std::char_traits<char>, std::allocator<char> >*> const&)
PUBLIC 6d10 0 void std::_Construct<std::__cxx11::basic_string<char, std::char_traits<char>, std::allocator<char> >, std::__cxx11::basic_string<char, std::char_traits<char>, std::allocator<char> > >(std::__cxx11::basic_string<char, std::char_traits<char>, std::allocator<char> >*, std::__cxx11::basic_string<char, std::char_traits<char>, std::allocator<char> >&&)
PUBLIC 6d50 0 std::move_iterator<std::__cxx11::basic_string<char, std::char_traits<char>, std::allocator<char> >*>::operator*() const
PUBLIC 6d70 0 std::move_iterator<std::__cxx11::basic_string<char, std::char_traits<char>, std::allocator<char> >*>::operator++()
PUBLIC 6d90 0 bool std::operator==<std::__cxx11::basic_string<char, std::char_traits<char>, std::allocator<char> >*>(std::move_iterator<std::__cxx11::basic_string<char, std::char_traits<char>, std::allocator<char> >*> const&, std::move_iterator<std::__cxx11::basic_string<char, std::char_traits<char>, std::allocator<char> >*> const&)
PUBLIC 6dd0 0 std::move_iterator<std::__cxx11::basic_string<char, std::char_traits<char>, std::allocator<char> >*>::base() const
PUBLIC 6df0 0 std::move_iterator<std::__cxx11::basic_string<char, std::char_traits<char>, std::allocator<char> >*>::move_iterator(std::__cxx11::basic_string<char, std::char_traits<char>, std::allocator<char> >*)
PUBLIC 6e10 0 void __gnu_cxx::new_allocator<std::__cxx11::basic_string<char, std::char_traits<char>, std::allocator<char> > >::destroy<std::__cxx11::basic_string<char, std::char_traits<char>, std::allocator<char> > >(std::__cxx11::basic_string<char, std::char_traits<char>, std::allocator<char> >*)
PUBLIC 6e30 0 std::__uniq_ptr_impl<crashpad::CrashReportDatabase, std::default_delete<crashpad::CrashReportDatabase> >::_M_ptr()
PUBLIC 6e50 0 std::unique_ptr<crashpad::CrashReportDatabase, std::default_delete<crashpad::CrashReportDatabase> >::get_deleter()
PUBLIC 6e90 0 std::default_delete<crashpad::CrashReportDatabase>::operator()(crashpad::CrashReportDatabase*) const
PUBLIC 6ed0 0 std::tuple_element<0ul, std::tuple<crashpad::CrashReportDatabase*, std::default_delete<crashpad::CrashReportDatabase> > >::type& std::get<0ul, crashpad::CrashReportDatabase*, std::default_delete<crashpad::CrashReportDatabase> >(std::tuple<crashpad::CrashReportDatabase*, std::default_delete<crashpad::CrashReportDatabase> >&)
PUBLIC 6ef0 0 crashpad::CrashReportDatabase*& std::__get_helper<0ul, crashpad::CrashReportDatabase*, std::default_delete<crashpad::CrashReportDatabase> >(std::_Tuple_impl<0ul, crashpad::CrashReportDatabase*, std::default_delete<crashpad::CrashReportDatabase> >&)
PUBLIC 6f10 0 std::_Tuple_impl<0ul, crashpad::CrashReportDatabase*, std::default_delete<crashpad::CrashReportDatabase> >::_M_head(std::_Tuple_impl<0ul, crashpad::CrashReportDatabase*, std::default_delete<crashpad::CrashReportDatabase> >&)
PUBLIC 6f30 0 std::_Head_base<0ul, crashpad::CrashReportDatabase*, false>::_M_head(std::_Head_base<0ul, crashpad::CrashReportDatabase*, false>&)
PUBLIC 6f40 0 std::__uniq_ptr_impl<crashpad::CrashReportDatabase, std::default_delete<crashpad::CrashReportDatabase> >::_M_deleter()
PUBLIC 6f60 0 std::tuple_element<1ul, std::tuple<crashpad::CrashReportDatabase*, std::default_delete<crashpad::CrashReportDatabase> > >::type& std::get<1ul, crashpad::CrashReportDatabase*, std::default_delete<crashpad::CrashReportDatabase> >(std::tuple<crashpad::CrashReportDatabase*, std::default_delete<crashpad::CrashReportDatabase> >&)
PUBLIC 6f80 0 std::default_delete<crashpad::CrashReportDatabase>& std::__get_helper<1ul, std::default_delete<crashpad::CrashReportDatabase>>(std::_Tuple_impl<1ul, std::default_delete<crashpad::CrashReportDatabase>>&)
PUBLIC 6fa0 0 std::_Tuple_impl<1ul, std::default_delete<crashpad::CrashReportDatabase> >::_M_head(std::_Tuple_impl<1ul, std::default_delete<crashpad::CrashReportDatabase> >&)
PUBLIC 6fc0 0 std::_Head_base<1ul, std::default_delete<crashpad::CrashReportDatabase>, true>::_M_head(std::_Head_base<1ul, std::default_delete<crashpad::CrashReportDatabase>, true>&)
PUBLIC 6fe0 0 std::unique_ptr<crashpad::CrashReportDatabase, std::default_delete<crashpad::CrashReportDatabase> >::operator bool() const
PUBLIC 7010 0 std::unique_ptr<crashpad::CrashReportDatabase, std::default_delete<crashpad::CrashReportDatabase> >::get() const
PUBLIC 7050 0 std::__uniq_ptr_impl<crashpad::CrashReportDatabase, std::default_delete<crashpad::CrashReportDatabase> >::_M_ptr() const
PUBLIC 7070 0 std::tuple_element<0ul, std::tuple<crashpad::CrashReportDatabase*, std::default_delete<crashpad::CrashReportDatabase> > >::type const& std::get<0ul, crashpad::CrashReportDatabase*, std::default_delete<crashpad::CrashReportDatabase> >(std::tuple<crashpad::CrashReportDatabase*, std::default_delete<crashpad::CrashReportDatabase> > const&)
PUBLIC 7090 0 crashpad::CrashReportDatabase* const& std::__get_helper<0ul, crashpad::CrashReportDatabase*, std::default_delete<crashpad::CrashReportDatabase> >(std::_Tuple_impl<0ul, crashpad::CrashReportDatabase*, std::default_delete<crashpad::CrashReportDatabase> > const&)
PUBLIC 70b0 0 std::_Tuple_impl<0ul, crashpad::CrashReportDatabase*, std::default_delete<crashpad::CrashReportDatabase> >::_M_head(std::_Tuple_impl<0ul, crashpad::CrashReportDatabase*, std::default_delete<crashpad::CrashReportDatabase> > const&)
PUBLIC 70d0 0 std::_Head_base<0ul, crashpad::CrashReportDatabase*, false>::_M_head(std::_Head_base<0ul, crashpad::CrashReportDatabase*, false> const&)
PUBLIC 70e0 0 crashpad::internal::ScopedLockedFileHandleTraits::Free(int)
PUBLIC 7130 0 crashpad::Settings::Settings()
PUBLIC 7170 0 crashpad::Settings::~Settings()
PUBLIC 71a0 0 crashpad::Settings::Initialize(base::FilePath const&)
PUBLIC 7240 0 crashpad::Settings::OpenForWritingAndReadSettings(crashpad::Settings::Data*)
PUBLIC 7380 0 crashpad::Settings::GetClientID(crashpad::UUID*)
PUBLIC 7400 0 crashpad::Settings::OpenAndReadSettings(crashpad::Settings::Data*)
PUBLIC 74b0 0 crashpad::Settings::GetUploadsEnabled(bool*)
PUBLIC 7530 0 crashpad::Settings::SetUploadsEnabled(bool)
PUBLIC 7620 0 crashpad::Settings::WriteSettings(int, crashpad::Settings::Data const&)
PUBLIC 76a0 0 crashpad::Settings::GetLastUploadAttemptTime(long*)
PUBLIC 7720 0 crashpad::Settings::SetLastUploadAttemptTime(long)
PUBLIC 7800 0 crashpad::Settings::MakeScopedLockedFileHandle(int, crashpad::FileLocking, base::FilePath const&)
PUBLIC 7880 0 crashpad::Settings::OpenForReading()
PUBLIC 7900 0 crashpad::Settings::OpenForReadingAndWriting(crashpad::FileWriteMode, bool)
PUBLIC 79a0 0 crashpad::Settings::ReadSettings(int, crashpad::Settings::Data*, bool)
PUBLIC 7ad0 0 crashpad::Settings::RecoverSettings(int, crashpad::Settings::Data*)
PUBLIC 7c80 0 crashpad::Settings::InitializeSettings(int)
PUBLIC 7d40 0 crashpad::CrashpadClient::CrashpadClient()
PUBLIC 7d90 0 crashpad::CrashpadClient::~CrashpadClient()
PUBLIC 7dc0 0 crashpad::CrashpadClient::StartHandler(base::FilePath const&, base::FilePath const&, base::FilePath const&, std::__cxx11::basic_string<char, std::char_traits<char>, std::allocator<char> > const&, std::map<std::__cxx11::basic_string<char, std::char_traits<char>, std::allocator<char> >, std::__cxx11::basic_string<char, std::char_traits<char>, std::allocator<char> >, std::less<std::__cxx11::basic_string<char, std::char_traits<char>, std::allocator<char> > >, std::allocator<std::pair<std::__cxx11::basic_string<char, std::char_traits<char>, std::allocator<char> > const, std::__cxx11::basic_string<char, std::char_traits<char>, std::allocator<char> > > > > const&, std::vector<std::__cxx11::basic_string<char, std::char_traits<char>, std::allocator<char> >, std::allocator<std::__cxx11::basic_string<char, std::char_traits<char>, std::allocator<char> > > > const&, bool, bool)
PUBLIC 8220 0 crashpad::(anonymous namespace)::RequestCrashDumpHandler::Initialize(base::ScopedGeneric<int, base::internal::ScopedFDCloseTraits>, int, std::set<int, std::less<int>, std::allocator<int> > const*)
PUBLIC 83a0 0 crashpad::CrashpadClient::GetHandlerSocket(int*, int*)
PUBLIC 84a0 0 crashpad::CrashpadClient::SetHandlerSocket(base::ScopedGeneric<int, base::internal::ScopedFDCloseTraits>, int)
PUBLIC 8590 0 crashpad::CrashpadClient::StartHandlerAtCrash(base::FilePath const&, base::FilePath const&, base::FilePath const&, std::__cxx11::basic_string<char, std::char_traits<char>, std::allocator<char> > const&, std::map<std::__cxx11::basic_string<char, std::char_traits<char>, std::allocator<char> >, std::__cxx11::basic_string<char, std::char_traits<char>, std::allocator<char> >, std::less<std::__cxx11::basic_string<char, std::char_traits<char>, std::allocator<char> > >, std::allocator<std::pair<std::__cxx11::basic_string<char, std::char_traits<char>, std::allocator<char> > const, std::__cxx11::basic_string<char, std::char_traits<char>, std::allocator<char> > > > > const&, std::vector<std::__cxx11::basic_string<char, std::char_traits<char>, std::allocator<char> >, std::allocator<std::__cxx11::basic_string<char, std::char_traits<char>, std::allocator<char> > > > const&)
PUBLIC 8840 0 crashpad::CrashpadClient::StartHandlerForClient(base::FilePath const&, base::FilePath const&, base::FilePath const&, std::__cxx11::basic_string<char, std::char_traits<char>, std::allocator<char> > const&, std::map<std::__cxx11::basic_string<char, std::char_traits<char>, std::allocator<char> >, std::__cxx11::basic_string<char, std::char_traits<char>, std::allocator<char> >, std::less<std::__cxx11::basic_string<char, std::char_traits<char>, std::allocator<char> > >, std::allocator<std::pair<std::__cxx11::basic_string<char, std::char_traits<char>, std::allocator<char> > const, std::__cxx11::basic_string<char, std::char_traits<char>, std::allocator<char> > > > > const&, std::vector<std::__cxx11::basic_string<char, std::char_traits<char>, std::allocator<char> >, std::allocator<std::__cxx11::basic_string<char, std::char_traits<char>, std::allocator<char> > > > const&, int)
PUBLIC 8a00 0 crashpad::CrashpadClient::DumpWithoutCrash(ucontext_t*)
PUBLIC 8b30 0 crashpad::CrashpadClient::CrashWithoutDump(std::__cxx11::basic_string<char, std::char_traits<char>, std::allocator<char> > const&)
PUBLIC 8bc0 0 crashpad::CrashpadClient::SetFirstChanceExceptionHandler(bool (*)(int, siginfo_t*, ucontext_t*))
PUBLIC 8c00 0 crashpad::CrashpadClient::SetUnhandledSignals(std::set<int, std::less<int>, std::allocator<int> > const&)
PUBLIC 8d10 0 std::_Rb_tree<int, int, std::_Identity<int>, std::less<int>, std::allocator<int> >::_M_erase(std::_Rb_tree_node<int>*)
PUBLIC 8d80 0 crashpad::(anonymous namespace)::RequestCrashDumpHandler::HandleCrashImpl()
PUBLIC 8e00 0 crashpad::(anonymous namespace)::SignalHandler::HandleOrReraiseSignal(int, siginfo_t*, void*)
PUBLIC 8f30 0 crashpad::(anonymous namespace)::LaunchAtCrashHandler::HandleCrashImpl()
PUBLIC 9000 0 std::_Rb_tree_node<int>* std::_Rb_tree<int, int, std::_Identity<int>, std::less<int>, std::allocator<int> >::_M_copy<std::_Rb_tree<int, int, std::_Identity<int>, std::less<int>, std::allocator<int> >::_Reuse_or_alloc_node>(std::_Rb_tree_node<int> const*, std::_Rb_tree_node_base*, std::_Rb_tree<int, int, std::_Identity<int>, std::less<int>, std::allocator<int> >::_Reuse_or_alloc_node&)
PUBLIC 9200 0 crashpad::BuildHandlerArgvStrings(base::FilePath const&, base::FilePath const&, base::FilePath const&, std::__cxx11::basic_string<char, std::char_traits<char>, std::allocator<char> > const&, std::map<std::__cxx11::basic_string<char, std::char_traits<char>, std::allocator<char> >, std::__cxx11::basic_string<char, std::char_traits<char>, std::allocator<char> >, std::less<std::__cxx11::basic_string<char, std::char_traits<char>, std::allocator<char> > >, std::allocator<std::pair<std::__cxx11::basic_string<char, std::char_traits<char>, std::allocator<char> > const, std::__cxx11::basic_string<char, std::char_traits<char>, std::allocator<char> > > > > const&, std::vector<std::__cxx11::basic_string<char, std::char_traits<char>, std::allocator<char> >, std::allocator<std::__cxx11::basic_string<char, std::char_traits<char>, std::allocator<char> > > > const&)
PUBLIC 9980 0 crashpad::StringVectorToCStringVector(std::vector<std::__cxx11::basic_string<char, std::char_traits<char>, std::allocator<char> >, std::allocator<std::__cxx11::basic_string<char, std::char_traits<char>, std::allocator<char> > > > const&, std::vector<char const*, std::allocator<char const*> >*)
PUBLIC 9d00 0 void std::vector<std::__cxx11::basic_string<char, std::char_traits<char>, std::allocator<char> >, std::allocator<std::__cxx11::basic_string<char, std::char_traits<char>, std::allocator<char> > > >::_M_realloc_insert<std::__cxx11::basic_string<char, std::char_traits<char>, std::allocator<char> > const&>(__gnu_cxx::__normal_iterator<std::__cxx11::basic_string<char, std::char_traits<char>, std::allocator<char> >*, std::vector<std::__cxx11::basic_string<char, std::char_traits<char>, std::allocator<char> >, std::allocator<std::__cxx11::basic_string<char, std::char_traits<char>, std::allocator<char> > > > >, std::__cxx11::basic_string<char, std::char_traits<char>, std::allocator<char> > const&)
PUBLIC 9fc0 0 crashpad::CrashReportDatabase::NewReport::AddAttachment(std::__cxx11::basic_string<char, std::char_traits<char>, std::allocator<char> > const&)
PUBLIC a290 0 crashpad::CrashReportDatabaseGeneric::AttachmentsPath(crashpad::UUID const&)
PUBLIC a370 0 base::ScopedGeneric<base::FilePath, crashpad::ScopedRemoveFileTraits>::~ScopedGeneric()
PUBLIC a400 0 crashpad::CrashReportDatabase::UploadReport::InitializeAttachments()
PUBLIC a680 0 std::map<std::__cxx11::basic_string<char, std::char_traits<char>, std::allocator<char> >, crashpad::FileReader*, std::less<std::__cxx11::basic_string<char, std::char_traits<char>, std::allocator<char> > >, std::allocator<std::pair<std::__cxx11::basic_string<char, std::char_traits<char>, std::allocator<char> > const, crashpad::FileReader*> > >::operator[](std::__cxx11::basic_string<char, std::char_traits<char>, std::allocator<char> > const&)
PUBLIC a800 0 crashpad::CrashReportDatabaseGeneric::CrashReportDatabaseGeneric()
PUBLIC a850 0 crashpad::CrashReportDatabaseGeneric::~CrashReportDatabaseGeneric()
PUBLIC a8a0 0 crashpad::CrashReportDatabaseGeneric::~CrashReportDatabaseGeneric()
PUBLIC a900 0 crashpad::CrashReportDatabaseGeneric::Initialize(base::FilePath const&, bool)
PUBLIC abc0 0 crashpad::CrashReportDatabase::Initialize(base::FilePath const&)
PUBLIC ac60 0 crashpad::CrashReportDatabase::InitializeWithoutCreating(base::FilePath const&)
PUBLIC ad00 0 crashpad::CrashReportDatabaseGeneric::GetSettings()
PUBLIC ad30 0 crashpad::CrashReportDatabaseGeneric::PrepareNewCrashReport(std::unique_ptr<crashpad::CrashReportDatabase::NewReport, std::default_delete<crashpad::CrashReportDatabase::NewReport> >*)
PUBLIC ae60 0 crashpad::CrashReportDatabaseGeneric::FinishedWritingCrashReport(std::unique_ptr<crashpad::CrashReportDatabase::NewReport, std::default_delete<crashpad::CrashReportDatabase::NewReport> >, crashpad::UUID*)
PUBLIC b1d0 0 crashpad::CrashReportDatabaseGeneric::ReportPath(crashpad::UUID const&, crashpad::CrashReportDatabaseGeneric::ReportState)
PUBLIC b400 0 crashpad::(anonymous namespace)::ScopedLockFile::ResetAcquire(base::FilePath const&)
PUBLIC b5c0 0 crashpad::CrashReportDatabaseGeneric::WriteNewMetadata(base::FilePath const&)
PUBLIC b780 0 crashpad::CrashReportDatabaseGeneric::LookUpCrashReport(crashpad::UUID const&, crashpad::CrashReportDatabase::Report*)
PUBLIC b830 0 crashpad::CrashReportDatabaseGeneric::CheckoutReport(crashpad::UUID const&, crashpad::CrashReportDatabaseGeneric::ReportState, base::FilePath*, crashpad::(anonymous namespace)::ScopedLockFile*, crashpad::CrashReportDatabase::Report*)
PUBLIC b980 0 crashpad::CrashReportDatabaseGeneric::GetPendingReports(std::vector<crashpad::CrashReportDatabase::Report, std::allocator<crashpad::CrashReportDatabase::Report> >*)
PUBLIC b9c0 0 crashpad::CrashReportDatabaseGeneric::ReportsInState(crashpad::CrashReportDatabaseGeneric::ReportState, std::vector<crashpad::CrashReportDatabase::Report, std::allocator<crashpad::CrashReportDatabase::Report> >*)
PUBLIC bdb0 0 crashpad::CrashReportDatabaseGeneric::GetCompletedReports(std::vector<crashpad::CrashReportDatabase::Report, std::allocator<crashpad::CrashReportDatabase::Report> >*)
PUBLIC bdf0 0 crashpad::CrashReportDatabaseGeneric::GetReportForUploading(crashpad::UUID const&, std::unique_ptr<crashpad::CrashReportDatabase::UploadReport const, std::default_delete<crashpad::CrashReportDatabase::UploadReport const> >*, bool)
PUBLIC bfc0 0 crashpad::CrashReportDatabaseGeneric::SkipReportUpload(crashpad::UUID const&, crashpad::Metrics::CrashSkippedReason)
PUBLIC c2e0 0 crashpad::CrashReportDatabaseGeneric::WriteMetadata(base::FilePath const&, crashpad::CrashReportDatabase::Report const&)
PUBLIC c4d0 0 crashpad::CrashReportDatabaseGeneric::DeleteReport(crashpad::UUID const&)
PUBLIC c710 0 crashpad::CrashReportDatabaseGeneric::LocateAndLockReport(crashpad::UUID const&, crashpad::CrashReportDatabaseGeneric::ReportState, base::FilePath*, crashpad::(anonymous namespace)::ScopedLockFile*)
PUBLIC c8e0 0 crashpad::CrashReportDatabaseGeneric::RemoveAttachmentsByUUID(crashpad::UUID const&)
PUBLIC ca00 0 crashpad::CrashReportDatabaseGeneric::RequestUpload(crashpad::UUID const&)
PUBLIC ccf0 0 crashpad::CrashReportDatabaseGeneric::CleanDatabase(long)
PUBLIC ceb0 0 crashpad::CrashReportDatabaseGeneric::CleanReportsInState(crashpad::CrashReportDatabaseGeneric::ReportState, long)
PUBLIC d9a0 0 crashpad::CrashReportDatabaseGeneric::CleanOrphanedAttachments()
PUBLIC dd90 0 crashpad::CrashReportDatabaseGeneric::RecordUploadAttempt(crashpad::CrashReportDatabase::UploadReport*, bool, std::__cxx11::basic_string<char, std::char_traits<char>, std::allocator<char> > const&)
PUBLIC e090 0 crashpad::CrashReportDatabaseGeneric::CleaningReadMetadata(base::FilePath const&, crashpad::CrashReportDatabase::Report*)
PUBLIC e230 0 crashpad::CrashReportDatabaseGeneric::ReadMetadata(base::FilePath const&, crashpad::CrashReportDatabase::Report*)
PUBLIC e640 0 crashpad::(anonymous namespace)::GetFileSize(base::FilePath const&)
PUBLIC e710 0 base::ScopedGeneric<base::FilePath, crashpad::ScopedRemoveFileTraits>::reset(base::FilePath const&)
PUBLIC e800 0 void std::vector<std::unique_ptr<crashpad::FileWriter, std::default_delete<crashpad::FileWriter> >, std::allocator<std::unique_ptr<crashpad::FileWriter, std::default_delete<crashpad::FileWriter> > > >::_M_realloc_insert<std::unique_ptr<crashpad::FileWriter, std::default_delete<crashpad::FileWriter> > >(__gnu_cxx::__normal_iterator<std::unique_ptr<crashpad::FileWriter, std::default_delete<crashpad::FileWriter> >*, std::vector<std::unique_ptr<crashpad::FileWriter, std::default_delete<crashpad::FileWriter> >, std::allocator<std::unique_ptr<crashpad::FileWriter, std::default_delete<crashpad::FileWriter> > > > >, std::unique_ptr<crashpad::FileWriter, std::default_delete<crashpad::FileWriter> >&&)
PUBLIC eb80 0 void std::vector<base::ScopedGeneric<base::FilePath, crashpad::ScopedRemoveFileTraits>, std::allocator<base::ScopedGeneric<base::FilePath, crashpad::ScopedRemoveFileTraits> > >::_M_realloc_insert<base::ScopedGeneric<base::FilePath, crashpad::ScopedRemoveFileTraits> >(__gnu_cxx::__normal_iterator<base::ScopedGeneric<base::FilePath, crashpad::ScopedRemoveFileTraits>*, std::vector<base::ScopedGeneric<base::FilePath, crashpad::ScopedRemoveFileTraits>, std::allocator<base::ScopedGeneric<base::FilePath, crashpad::ScopedRemoveFileTraits> > > >, base::ScopedGeneric<base::FilePath, crashpad::ScopedRemoveFileTraits>&&)
PUBLIC edd0 0 void std::vector<std::unique_ptr<crashpad::FileReader, std::default_delete<crashpad::FileReader> >, std::allocator<std::unique_ptr<crashpad::FileReader, std::default_delete<crashpad::FileReader> > > >::_M_realloc_insert<std::unique_ptr<crashpad::FileReader, std::default_delete<crashpad::FileReader> > >(__gnu_cxx::__normal_iterator<std::unique_ptr<crashpad::FileReader, std::default_delete<crashpad::FileReader> >*, std::vector<std::unique_ptr<crashpad::FileReader, std::default_delete<crashpad::FileReader> >, std::allocator<std::unique_ptr<crashpad::FileReader, std::default_delete<crashpad::FileReader> > > > >, std::unique_ptr<crashpad::FileReader, std::default_delete<crashpad::FileReader> >&&)
PUBLIC f150 0 std::_Rb_tree_iterator<std::pair<std::__cxx11::basic_string<char, std::char_traits<char>, std::allocator<char> > const, crashpad::FileReader*> > std::_Rb_tree<std::__cxx11::basic_string<char, std::char_traits<char>, std::allocator<char> >, std::pair<std::__cxx11::basic_string<char, std::char_traits<char>, std::allocator<char> > const, crashpad::FileReader*>, std::_Select1st<std::pair<std::__cxx11::basic_string<char, std::char_traits<char>, std::allocator<char> > const, crashpad::FileReader*> >, std::less<std::__cxx11::basic_string<char, std::char_traits<char>, std::allocator<char> > >, std::allocator<std::pair<std::__cxx11::basic_string<char, std::char_traits<char>, std::allocator<char> > const, crashpad::FileReader*> > >::_M_emplace_hint_unique<std::piecewise_construct_t const&, std::tuple<std::__cxx11::basic_string<char, std::char_traits<char>, std::allocator<char> > const&>, std::tuple<> >(std::_Rb_tree_const_iterator<std::pair<std::__cxx11::basic_string<char, std::char_traits<char>, std::allocator<char> > const, crashpad::FileReader*> >, std::piecewise_construct_t const&, std::tuple<std::__cxx11::basic_string<char, std::char_traits<char>, std::allocator<char> > const&>&&, std::tuple<>&&)
PUBLIC f300 0 std::_Rb_tree<std::__cxx11::basic_string<char, std::char_traits<char>, std::allocator<char> >, std::pair<std::__cxx11::basic_string<char, std::char_traits<char>, std::allocator<char> > const, crashpad::FileReader*>, std::_Select1st<std::pair<std::__cxx11::basic_string<char, std::char_traits<char>, std::allocator<char> > const, crashpad::FileReader*> >, std::less<std::__cxx11::basic_string<char, std::char_traits<char>, std::allocator<char> > >, std::allocator<std::pair<std::__cxx11::basic_string<char, std::char_traits<char>, std::allocator<char> > const, crashpad::FileReader*> > >::_M_get_insert_hint_unique_pos(std::_Rb_tree_const_iterator<std::pair<std::__cxx11::basic_string<char, std::char_traits<char>, std::allocator<char> > const, crashpad::FileReader*> >, std::__cxx11::basic_string<char, std::char_traits<char>, std::allocator<char> > const&)
PUBLIC f5d0 0 std::_Rb_tree<std::__cxx11::basic_string<char, std::char_traits<char>, std::allocator<char> >, std::pair<std::__cxx11::basic_string<char, std::char_traits<char>, std::allocator<char> > const, crashpad::FileReader*>, std::_Select1st<std::pair<std::__cxx11::basic_string<char, std::char_traits<char>, std::allocator<char> > const, crashpad::FileReader*> >, std::less<std::__cxx11::basic_string<char, std::char_traits<char>, std::allocator<char> > >, std::allocator<std::pair<std::__cxx11::basic_string<char, std::char_traits<char>, std::allocator<char> > const, crashpad::FileReader*> > >::_M_get_insert_unique_pos(std::__cxx11::basic_string<char, std::char_traits<char>, std::allocator<char> > const&)
PUBLIC f750 0 crashpad::CrashReportDatabaseGeneric::LockfileUploadReport::~LockfileUploadReport()
PUBLIC f7a0 0 crashpad::CrashReportDatabaseGeneric::LockfileUploadReport::~LockfileUploadReport()
PUBLIC f800 0 void std::vector<crashpad::CrashReportDatabase::Report, std::allocator<crashpad::CrashReportDatabase::Report> >::_M_realloc_insert<crashpad::CrashReportDatabase::Report const&>(__gnu_cxx::__normal_iterator<crashpad::CrashReportDatabase::Report*, std::vector<crashpad::CrashReportDatabase::Report, std::allocator<crashpad::CrashReportDatabase::Report> > >, crashpad::CrashReportDatabase::Report const&)
PUBLIC fc40 0 crashpad::CrashReportDatabase::Report::Report()
PUBLIC fcc0 0 crashpad::CrashReportDatabase::NewReport::NewReport()
PUBLIC fd50 0 crashpad::CrashReportDatabase::NewReport::~NewReport()
PUBLIC fe40 0 crashpad::CrashReportDatabase::NewReport::Initialize(crashpad::CrashReportDatabase*, base::FilePath const&, std::__cxx11::basic_string<char, std::char_traits<char>, std::allocator<char> > const&)
PUBLIC ffe0 0 crashpad::CrashReportDatabase::NewReport::Reader()
PUBLIC 10070 0 crashpad::CrashReportDatabase::UploadReport::UploadReport()
PUBLIC 10170 0 crashpad::CrashReportDatabase::UploadReport::~UploadReport()
PUBLIC 10290 0 crashpad::CrashReportDatabase::UploadReport::~UploadReport()
PUBLIC 102d0 0 crashpad::CrashReportDatabase::UploadReport::Initialize(base::FilePath, crashpad::CrashReportDatabase*)
PUBLIC 10320 0 crashpad::CrashReportDatabase::RecordUploadComplete(std::unique_ptr<crashpad::CrashReportDatabase::UploadReport const, std::default_delete<crashpad::CrashReportDatabase::UploadReport const> >, std::__cxx11::basic_string<char, std::char_traits<char>, std::allocator<char> > const&)
PUBLIC 10360 0 std::_Rb_tree<std::__cxx11::basic_string<char, std::char_traits<char>, std::allocator<char> >, std::pair<std::__cxx11::basic_string<char, std::char_traits<char>, std::allocator<char> > const, crashpad::FileReader*>, std::_Select1st<std::pair<std::__cxx11::basic_string<char, std::char_traits<char>, std::allocator<char> > const, crashpad::FileReader*> >, std::less<std::__cxx11::basic_string<char, std::char_traits<char>, std::allocator<char> > >, std::allocator<std::pair<std::__cxx11::basic_string<char, std::char_traits<char>, std::allocator<char> > const, crashpad::FileReader*> > >::_M_erase(std::_Rb_tree_node<std::pair<std::__cxx11::basic_string<char, std::char_traits<char>, std::allocator<char> > const, crashpad::FileReader*> >*)
PUBLIC 103f0 0 crashpad::internal::ReadExactlyInternal::ReadExactly(void*, unsigned long, bool)
PUBLIC 10510 0 crashpad::internal::WriteAllInternal::WriteAll(void const*, unsigned long)
PUBLIC 10590 0 crashpad::ReadFileExactly(int, void*, unsigned long)
PUBLIC 10650 0 crashpad::LoggingReadFileExactly(int, void*, unsigned long)
PUBLIC 106a0 0 crashpad::WriteFile(int, void const*, unsigned long)
PUBLIC 10740 0 crashpad::LoggingWriteFile(int, void const*, unsigned long)
PUBLIC 10850 0 crashpad::CheckedReadFileExactly(int, void*, unsigned long)
PUBLIC 10910 0 crashpad::CheckedWriteFile(int, void const*, unsigned long)
PUBLIC 109b0 0 crashpad::CheckedReadFileAtEOF(int)
PUBLIC 10b00 0 crashpad::LoggingReadToEOF(int, std::__cxx11::basic_string<char, std::char_traits<char>, std::allocator<char> >*)
PUBLIC 10c80 0 crashpad::LoggingReadEntireFile(base::FilePath const&, std::__cxx11::basic_string<char, std::char_traits<char>, std::allocator<char> >*)
PUBLIC 10cf0 0 crashpad::CheckedCloseFile(int)
PUBLIC 10d90 0 crashpad::(anonymous namespace)::FileIOReadExactly::Read(void*, unsigned long, bool)
PUBLIC 10e40 0 crashpad::(anonymous namespace)::FileIOWriteAll::Write(void const*, unsigned long)
PUBLIC 10e70 0 std::__cxx11::basic_string<char, std::char_traits<char>, std::allocator<char> >* logging::MakeCheckOpString<long, int>(long const&, int const&, char const*)
PUBLIC 110f0 0 crashpad::FileReaderInterface::ReadExactly(void*, unsigned long)
PUBLIC 11140 0 crashpad::WeakFileHandleFileReader::WeakFileHandleFileReader(int)
PUBLIC 11190 0 crashpad::WeakFileHandleFileReader::WeakFileHandleFileReader(int)
PUBLIC 111d0 0 crashpad::WeakFileHandleFileReader::~WeakFileHandleFileReader()
PUBLIC 11200 0 crashpad::WeakFileHandleFileReader::~WeakFileHandleFileReader()
PUBLIC 11230 0 crashpad::WeakFileHandleFileReader::~WeakFileHandleFileReader()
PUBLIC 11260 0 crashpad::WeakFileHandleFileReader::Read(void*, unsigned long)
PUBLIC 11300 0 crashpad::WeakFileHandleFileReader::Seek(long, int)
PUBLIC 11330 0 virtual thunk to crashpad::WeakFileHandleFileReader::Seek(long, int)
PUBLIC 11370 0 crashpad::FileReader::FileReader()
PUBLIC 113e0 0 crashpad::FileReader::FileReader()
PUBLIC 11430 0 crashpad::FileReader::~FileReader()
PUBLIC 11490 0 crashpad::FileReader::~FileReader()
PUBLIC 114e0 0 crashpad::FileReader::~FileReader()
PUBLIC 11530 0 crashpad::FileReader::Open(base::FilePath const&)
PUBLIC 11620 0 crashpad::FileReader::Close()
PUBLIC 116f0 0 crashpad::FileReader::Read(void*, unsigned long)
PUBLIC 11790 0 crashpad::FileReader::Seek(long, int)
PUBLIC 117c0 0 virtual thunk to crashpad::FileReader::Seek(long, int)
PUBLIC 11800 0 crashpad::FileReaderInterface::~FileReaderInterface()
PUBLIC 11810 0 crashpad::FileReaderInterface::~FileReaderInterface()
PUBLIC 11820 0 crashpad::(anonymous namespace)::FileReaderReadExactly::Read(void*, unsigned long, bool)
PUBLIC 11850 0 crashpad::WeakFileHandleFileWriter::WeakFileHandleFileWriter(int)
PUBLIC 118a0 0 crashpad::WeakFileHandleFileWriter::WeakFileHandleFileWriter(int)
PUBLIC 118e0 0 crashpad::WeakFileHandleFileWriter::~WeakFileHandleFileWriter()
PUBLIC 11910 0 crashpad::WeakFileHandleFileWriter::~WeakFileHandleFileWriter()
PUBLIC 11940 0 crashpad::WeakFileHandleFileWriter::~WeakFileHandleFileWriter()
PUBLIC 11970 0 crashpad::WeakFileHandleFileWriter::Write(void const*, unsigned long)
PUBLIC 119a0 0 crashpad::WeakFileHandleFileWriter::WriteIoVec(std::vector<crashpad::WritableIoVec, std::allocator<crashpad::WritableIoVec> >*)
PUBLIC 11c20 0 crashpad::WeakFileHandleFileWriter::Seek(long, int)
PUBLIC 11c50 0 virtual thunk to crashpad::WeakFileHandleFileWriter::Seek(long, int)
PUBLIC 11c90 0 crashpad::FileWriter::FileWriter()
PUBLIC 11d00 0 crashpad::FileWriter::FileWriter()
PUBLIC 11d50 0 crashpad::FileWriter::~FileWriter()
PUBLIC 11db0 0 crashpad::FileWriter::~FileWriter()
PUBLIC 11e00 0 crashpad::FileWriter::~FileWriter()
PUBLIC 11e50 0 crashpad::FileWriter::Open(base::FilePath const&, crashpad::FileWriteMode, crashpad::FilePermissions)
PUBLIC 11f50 0 crashpad::FileWriter::OpenMemfd(base::FilePath const&)
PUBLIC 12040 0 crashpad::FileWriter::fd()
PUBLIC 12070 0 crashpad::FileWriter::Close()
PUBLIC 12140 0 crashpad::FileWriter::Write(void const*, unsigned long)
PUBLIC 12170 0 crashpad::FileWriter::WriteIoVec(std::vector<crashpad::WritableIoVec, std::allocator<crashpad::WritableIoVec> >*)
PUBLIC 121a0 0 crashpad::FileWriter::Seek(long, int)
PUBLIC 121d0 0 virtual thunk to crashpad::FileWriter::Seek(long, int)
PUBLIC 12210 0 crashpad::FileWriterInterface::~FileWriterInterface()
PUBLIC 12220 0 crashpad::FileWriterInterface::~FileWriterInterface()
PUBLIC 12230 0 crashpad::ScopedRemoveFileTraits::Free(base::FilePath const&)
PUBLIC 12260 0 base::UmaHistogramSparse(std::__cxx11::basic_string<char, std::char_traits<char>, std::allocator<char> > const&, int)
PUBLIC 12290 0 crashpad::Metrics::CrashReportPending(crashpad::Metrics::PendingReportReason)
PUBLIC 122c0 0 crashpad::Metrics::CrashReportSize(long)
PUBLIC 122f0 0 crashpad::Metrics::CrashUploadAttempted(bool)
PUBLIC 12320 0 crashpad::Metrics::CrashUploadSkipped(crashpad::Metrics::CrashSkippedReason)
PUBLIC 12350 0 crashpad::Metrics::ExceptionCaptureResult(crashpad::Metrics::CaptureResult)
PUBLIC 12380 0 crashpad::Metrics::ExceptionCode(unsigned int)
PUBLIC 12410 0 crashpad::Metrics::ExceptionEncountered()
PUBLIC 12440 0 crashpad::Metrics::HandlerLifetimeMilestone(crashpad::Metrics::LifetimeMilestone)
PUBLIC 12470 0 crashpad::Metrics::HandlerCrashed(unsigned int)
PUBLIC 12510 0 crashpad::UUID::operator==(crashpad::UUID const&) const
PUBLIC 12550 0 crashpad::UUID::InitializeToZero()
PUBLIC 12580 0 crashpad::UUID::InitializeFromBytes(unsigned char const*)
PUBLIC 125c0 0 crashpad::UUID::InitializeFromString(base::BasicStringPiece<std::__cxx11::basic_string<char, std::char_traits<char>, std::allocator<char> > > const&)
PUBLIC 126a0 0 crashpad::UUID::InitializeFromString(base::BasicStringPiece<std::__cxx11::basic_string<unsigned short, base::string16_char_traits, std::allocator<unsigned short> > > const&)
PUBLIC 127a0 0 crashpad::UUID::InitializeWithNew()
PUBLIC 12800 0 crashpad::UUID::ToString[abi:cxx11]() const
PUBLIC 128a0 0 crashpad::DirectoryReader::DirectoryReader()
PUBLIC 128d0 0 crashpad::DirectoryReader::~DirectoryReader()
PUBLIC 12920 0 crashpad::DirectoryReader::Open(base::FilePath const&)
PUBLIC 12a20 0 crashpad::DirectoryReader::NextFile(base::FilePath*)
PUBLIC 12c50 0 crashpad::DirectoryReader::DirectoryFD()
PUBLIC 12cf0 0 crashpad::internal::NativeWriteFile(int, void const*, unsigned long)
PUBLIC 12d90 0 crashpad::ReadFile(int, void*, unsigned long)
PUBLIC 12e30 0 crashpad::OpenFileForRead(base::FilePath const&)
PUBLIC 12e90 0 crashpad::OpenFileForWrite(base::FilePath const&, crashpad::FileWriteMode, crashpad::FilePermissions)
PUBLIC 12f20 0 crashpad::OpenFileForReadAndWrite(base::FilePath const&, crashpad::FileWriteMode, crashpad::FilePermissions)
PUBLIC 12fb0 0 crashpad::LoggingOpenFileForRead(base::FilePath const&)
PUBLIC 13080 0 crashpad::LoggingOpenFileForWrite(base::FilePath const&, crashpad::FileWriteMode, crashpad::FilePermissions)
PUBLIC 13180 0 crashpad::LoggingOpenMemoryFileForReadAndWrite(base::FilePath const&)
PUBLIC 13450 0 crashpad::LoggingOpenFileForReadAndWrite(base::FilePath const&, crashpad::FileWriteMode, crashpad::FilePermissions)
PUBLIC 13550 0 crashpad::LoggingLockFile(int, crashpad::FileLocking)
PUBLIC 13630 0 crashpad::LoggingUnlockFile(int)
PUBLIC 136d0 0 crashpad::LoggingSeekFile(int, long, int)
PUBLIC 13770 0 crashpad::LoggingTruncateFile(int)
PUBLIC 13830 0 crashpad::LoggingCloseFile(int)
PUBLIC 138e0 0 crashpad::LoggingFileSizeByHandle(int)
PUBLIC 139a0 0 crashpad::StdioFileHandle(crashpad::StdioStream)
PUBLIC 139d0 0 crashpad::FileModificationTime(base::FilePath const&, timespec*)
PUBLIC 13ab0 0 crashpad::LoggingCreateDirectory(base::FilePath const&, crashpad::FilePermissions, bool)
PUBLIC 13bf0 0 crashpad::IsDirectory(base::FilePath const&, bool)
PUBLIC 13d40 0 crashpad::MoveFileOrDirectory(base::FilePath const&, base::FilePath const&)
PUBLIC 13e90 0 crashpad::IsRegularFile(base::FilePath const&)
PUBLIC 13f90 0 crashpad::LoggingRemoveFile(base::FilePath const&)
PUBLIC 14050 0 crashpad::LoggingRemoveDirectory(base::FilePath const&)
PUBLIC 14110 0 crashpad::internal::ScopedDIRCloseTraits::Free(__dirstream*)
PUBLIC 141c0 0 crashpad::Signals::OldActions::ActionForSignal(int)
PUBLIC 14200 0 crashpad::Signals::InstallHandler(int, void (*)(int, siginfo_t*, void*), int, sigaction*)
PUBLIC 142f0 0 crashpad::Signals::InstallDefaultHandler(int)
PUBLIC 14360 0 crashpad::Signals::InstallCrashHandlers(void (*)(int, siginfo_t*, void*), int, crashpad::Signals::OldActions*, std::set<int, std::less<int>, std::allocator<int> > const*)
PUBLIC 14400 0 crashpad::(anonymous namespace)::InstallHandlers(std::vector<int, std::allocator<int> > const&, void (*)(int, siginfo_t*, void*), int, crashpad::Signals::OldActions*, std::set<int, std::less<int>, std::allocator<int> > const*)
PUBLIC 14570 0 crashpad::Signals::InstallTerminateHandlers(void (*)(int, siginfo_t*, void*), int, crashpad::Signals::OldActions*)
PUBLIC 148e0 0 crashpad::Signals::WillSignalReraiseAutonomously(siginfo_t const*)
PUBLIC 14930 0 crashpad::Signals::RestoreHandlerAndReraiseSignalOnReturn(siginfo_t const*, sigaction const*)
PUBLIC 14a00 0 crashpad::Signals::IsCrashSignal(int)
PUBLIC 14a50 0 crashpad::Signals::IsTerminateSignal(int)
PUBLIC 14aa0 0 crashpad::DoubleForkAndExec(std::vector<std::__cxx11::basic_string<char, std::char_traits<char>, std::allocator<char> >, std::allocator<std::__cxx11::basic_string<char, std::char_traits<char>, std::allocator<char> > > > const&, std::vector<std::__cxx11::basic_string<char, std::char_traits<char>, std::allocator<char> >, std::allocator<std::__cxx11::basic_string<char, std::char_traits<char>, std::allocator<char> > > > const*, int, bool, void (*)())
PUBLIC 154f0 0 crashpad::ExceptionHandlerClient::ExceptionHandlerClient(int, bool)
PUBLIC 15530 0 crashpad::ExceptionHandlerClient::~ExceptionHandlerClient()
PUBLIC 15560 0 crashpad::ExceptionHandlerClient::GetHandlerCredentials(ucred*)
PUBLIC 155f0 0 crashpad::ExceptionHandlerClient::RequestCrashDump(crashpad::ExceptionHandlerProtocol::ClientInformation const&)
PUBLIC 156b0 0 crashpad::ExceptionHandlerClient::SignalCrashDump(crashpad::ExceptionHandlerProtocol::ClientInformation const&, unsigned long)
PUBLIC 158b0 0 crashpad::ExceptionHandlerClient::SendCrashDumpRequest(crashpad::ExceptionHandlerProtocol::ClientInformation const&, unsigned long)
PUBLIC 15940 0 crashpad::ExceptionHandlerClient::WaitForCrashDumpComplete()
PUBLIC 15b50 0 crashpad::ExceptionHandlerClient::SetPtracer(int)
PUBLIC 15bd0 0 crashpad::ExceptionHandlerClient::SetCanSetPtracer(bool)
PUBLIC 15c00 0 crashpad::ExceptionHandlerProtocol::ClientInformation::ClientInformation()
PUBLIC 15c40 0 crashpad::ExceptionHandlerProtocol::ClientToServerMessage::ClientToServerMessage()
PUBLIC 15c80 0 crashpad::PtraceBroker::PtraceBroker(int, int, bool)
PUBLIC 15ff0 0 crashpad::PtraceBroker::AllocateAttachments()
PUBLIC 16060 0 crashpad::PtraceBroker::~PtraceBroker()
PUBLIC 160c0 0 crashpad::PtraceBroker::SetFileRoot(char const*)
PUBLIC 160f0 0 crashpad::PtraceBroker::Run()
PUBLIC 16160 0 crashpad::PtraceBroker::RunImpl()
PUBLIC 16660 0 crashpad::PtraceBroker::ReleaseAttachments()
PUBLIC 166d0 0 crashpad::PtraceBroker::ReceiveAndOpenFilePath(unsigned long, bool, base::ScopedGeneric<int, base::internal::ScopedFDCloseTraits>*)
PUBLIC 16850 0 crashpad::PtraceBroker::SendFileContents(int)
PUBLIC 16970 0 crashpad::PtraceBroker::SendMemory(int, unsigned long, unsigned long)
PUBLIC 16c50 0 crashpad::PtraceBroker::SendDirectory(int)
PUBLIC 16d80 0 crashpad::PtraceBroker::SendError(int)
PUBLIC 16de0 0 crashpad::PtraceBroker::SendReadError(crashpad::PtraceBroker::ReadError)
PUBLIC 16e60 0 crashpad::PtraceBroker::SendOpenResult(crashpad::PtraceBroker::OpenResult)
PUBLIC 16ec0 0 crashpad::PtraceBroker::TryOpeningMemFile()
PUBLIC 16f80 0 crashpad::Ptracer::Ptracer(bool)
PUBLIC 16fb0 0 crashpad::Ptracer::Ptracer(bool, bool)
PUBLIC 16fe0 0 crashpad::Ptracer::~Ptracer()
PUBLIC 17010 0 crashpad::Ptracer::Initialize(int)
PUBLIC 171d0 0 crashpad::Ptracer::Is64Bit()
PUBLIC 17200 0 crashpad::Ptracer::GetThreadInfo(int, crashpad::ThreadInfo*)
PUBLIC 176d0 0 crashpad::Ptracer::ReadUpTo(int, unsigned long, unsigned long, char*)
PUBLIC 17930 0 crashpad::Ptracer::ReadLastBytes(int, unsigned long, unsigned long, char*)
PUBLIC 17aa0 0 crashpad::ScopedPrSetDumpable::ScopedPrSetDumpable(bool)
PUBLIC 17bd0 0 crashpad::ScopedPrSetDumpable::~ScopedPrSetDumpable()
PUBLIC 17ca0 0 crashpad::ScopedPrSetPtracer::ScopedPrSetPtracer(int, bool)
PUBLIC 17d60 0 crashpad::ScopedPrSetPtracer::~ScopedPrSetPtracer()
PUBLIC 17e10 0 crashpad::ScopedPtraceAttach::ScopedPtraceAttach()
PUBLIC 17e40 0 crashpad::ScopedPtraceAttach::~ScopedPtraceAttach()
PUBLIC 17f00 0 crashpad::ScopedPtraceAttach::Reset()
PUBLIC 17fc0 0 crashpad::ScopedPtraceAttach::ResetAttach(int)
PUBLIC 181c0 0 crashpad::UnixCredentialSocket::CreateCredentialSocketpair(base::ScopedGeneric<int, base::internal::ScopedFDCloseTraits>*, base::ScopedGeneric<int, base::internal::ScopedFDCloseTraits>*)
PUBLIC 18380 0 crashpad::UnixCredentialSocket::SendMsg(int, void const*, unsigned long, int const*, unsigned long)
PUBLIC 18490 0 crashpad::UnixCredentialSocket::RecvMsg(int, void*, unsigned long, ucred*, std::vector<base::ScopedGeneric<int, base::internal::ScopedFDCloseTraits>, std::allocator<base::ScopedGeneric<int, base::internal::ScopedFDCloseTraits> > >*)
PUBLIC 18a70 0 void std::vector<base::ScopedGeneric<int, base::internal::ScopedFDCloseTraits>, std::allocator<base::ScopedGeneric<int, base::internal::ScopedFDCloseTraits> > >::_M_realloc_insert<int&>(__gnu_cxx::__normal_iterator<base::ScopedGeneric<int, base::internal::ScopedFDCloseTraits>*, std::vector<base::ScopedGeneric<int, base::internal::ScopedFDCloseTraits>, std::allocator<base::ScopedGeneric<int, base::internal::ScopedFDCloseTraits> > > >, int&)
PUBLIC 18fc0 0 crashpad::ThreadContext::ThreadContext()
PUBLIC 19040 0 crashpad::ThreadContext::~ThreadContext()
PUBLIC 19070 0 crashpad::FloatContext::FloatContext()
PUBLIC 190a0 0 crashpad::FloatContext::~FloatContext()
PUBLIC 190d0 0 crashpad::ThreadInfo::ThreadInfo()
PUBLIC 19100 0 crashpad::ThreadInfo::~ThreadInfo()
PUBLIC 19130 0 crashpad::RandomString[abi:cxx11]()
PUBLIC 193e0 0 crashpad::CloseMultipleNowOrOnExec(int, int)
PUBLIC 19730 0 base::FilePath::FilePath()
PUBLIC 19770 0 base::FilePath::FilePath(base::FilePath const&)
PUBLIC 19820 0 base::FilePath::FilePath(std::__cxx11::basic_string<char, std::char_traits<char>, std::allocator<char> > const&)
PUBLIC 19910 0 base::FilePath::~FilePath()
PUBLIC 19960 0 base::FilePath::operator=(base::FilePath const&)
PUBLIC 199a0 0 base::FilePath::operator==(base::FilePath const&) const
PUBLIC 19a10 0 base::FilePath::operator!=(base::FilePath const&) const
PUBLIC 19a70 0 base::FilePath::IsSeparator(char)
PUBLIC 19aa0 0 base::FilePath::DirName() const
PUBLIC 19c60 0 base::FilePath::StripTrailingSeparatorsInternal()
PUBLIC 19d00 0 base::FilePath::BaseName() const
PUBLIC 19e20 0 base::FilePath::FinalExtension[abi:cxx11]() const
PUBLIC 1a040 0 base::FilePath::RemoveFinalExtension() const
PUBLIC 1a220 0 base::FilePath::Append(std::__cxx11::basic_string<char, std::char_traits<char>, std::allocator<char> > const&) const
PUBLIC 1a580 0 base::FilePath::Append(base::FilePath const&) const
PUBLIC 1a5c0 0 base::FilePath::IsAbsolute() const
PUBLIC 1a610 0 PrintTo(base::FilePath const&, std::ostream*)
PUBLIC 1a690 0 base::internal::ScopedFDCloseTraits::Free(int)
PUBLIC 1a740 0 base::internal::ScopedFILECloser::operator()(_IO_FILE*) const
PUBLIC 1a7e0 0 logging::SetLogMessageHandler(bool (*)(int, char const*, int, unsigned long, std::__cxx11::basic_string<char, std::char_traits<char>, std::allocator<char> > const&))
PUBLIC 1a810 0 logging::GetLogMessageHandler[abi:cxx11]()
PUBLIC 1a840 0 logging::LogMessage::LogMessage(char const*, char const*, int, int)
PUBLIC 1a9b0 0 logging::LogMessage::Init(char const*)
PUBLIC 1af10 0 logging::LogMessage::LogMessage(char const*, char const*, int, std::__cxx11::basic_string<char, std::char_traits<char>, std::allocator<char> >*)
PUBLIC 1b0d0 0 logging::LogMessage::~LogMessage()
PUBLIC 1b250 0 logging::ErrnoLogMessage::ErrnoLogMessage(char const*, char const*, int, int, int)
PUBLIC 1b3c0 0 logging::ErrnoLogMessage::~ErrnoLogMessage()
PUBLIC 1b480 0 base::RandUint64()
PUBLIC 1b4c0 0 base::RandBytes(void*, unsigned long)
PUBLIC 1b660 0 base::RandInt(int, int)
PUBLIC 1b700 0 base::RandGenerator(unsigned long)
PUBLIC 1b780 0 base::RandDouble()
PUBLIC 1b7e0 0 base::RandBytesAsString[abi:cxx11](unsigned long)
PUBLIC 1b8a0 0 base::StringToInt(base::BasicStringPiece<std::__cxx11::basic_string<char, std::char_traits<char>, std::allocator<char> > > const&, int*)
PUBLIC 1ba70 0 base::StringToUint(base::BasicStringPiece<std::__cxx11::basic_string<char, std::char_traits<char>, std::allocator<char> > > const&, unsigned int*)
PUBLIC 1bc20 0 base::StringToInt64(base::BasicStringPiece<std::__cxx11::basic_string<char, std::char_traits<char>, std::allocator<char> > > const&, long*)
PUBLIC 1be30 0 base::StringToUint64(base::BasicStringPiece<std::__cxx11::basic_string<char, std::char_traits<char>, std::allocator<char> > > const&, unsigned long*)
PUBLIC 1be70 0 base::(anonymous namespace)::IteratorRangeToNumber<base::(anonymous namespace)::BaseIteratorRangeToNumberTraits<char const*, unsigned long, 10> >::Invoke(char const*, char const*, unsigned long*)
PUBLIC 1c080 0 base::StringToSizeT(base::BasicStringPiece<std::__cxx11::basic_string<char, std::char_traits<char>, std::allocator<char> > > const&, unsigned long*)
PUBLIC 1c0c0 0 base::HexStringToInt(base::BasicStringPiece<std::__cxx11::basic_string<char, std::char_traits<char>, std::allocator<char> > > const&, int*)
PUBLIC 1c350 0 base::HexStringToBytes(std::__cxx11::basic_string<char, std::char_traits<char>, std::allocator<char> > const&, std::vector<unsigned char, std::allocator<unsigned char> >*)
PUBLIC 1c5c0 0 base::StringPrintf[abi:cxx11](char const*, ...)
PUBLIC 1c6a0 0 base::StringAppendV(std::__cxx11::basic_string<char, std::char_traits<char>, std::allocator<char> >*, char const*, __va_list_tag*)
PUBLIC 1c870 0 base::UTF8ToUTF16(char const*, unsigned long, std::__cxx11::basic_string<unsigned short, base::string16_char_traits, std::allocator<unsigned short> >*)
PUBLIC 1c940 0 base::UTF8ToUTF16(base::BasicStringPiece<std::__cxx11::basic_string<char, std::char_traits<char>, std::allocator<char> > > const&)
PUBLIC 1ca10 0 base::UTF16ToUTF8(unsigned short const*, unsigned long, std::__cxx11::basic_string<char, std::char_traits<char>, std::allocator<char> >*)
PUBLIC 1cae0 0 base::UTF16ToUTF8(base::BasicStringPiece<std::__cxx11::basic_string<unsigned short, base::string16_char_traits, std::allocator<unsigned short> > > const&)
PUBLIC 1cbb0 0 base::ReadFromFD(int, char*, unsigned long)
PUBLIC 1cc60 0 base::safe_strerror_r(int, char*, unsigned long)
PUBLIC 1ccc0 0 base::safe_strerror[abi:cxx11](int)
PUBLIC 1cdb0 0 void base::PrepareForUTF8Output<wchar_t>(wchar_t const*, unsigned long, std::__cxx11::basic_string<char, std::char_traits<char>, std::allocator<char> >*)
PUBLIC 1ce30 0 void base::PrepareForUTF8Output<unsigned short>(unsigned short const*, unsigned long, std::__cxx11::basic_string<char, std::char_traits<char>, std::allocator<char> >*)
PUBLIC 1ceb0 0 void base::PrepareForUTF16Or32Output<std::__cxx11::basic_string<unsigned short, base::string16_char_traits, std::allocator<unsigned short> > >(char const*, unsigned long, std::__cxx11::basic_string<unsigned short, base::string16_char_traits, std::allocator<unsigned short> >*)
PUBLIC 1cf30 0 base::ReadUnicodeCharacter(char const*, int, int*, unsigned int*)
PUBLIC 1d050 0 base::ReadUnicodeCharacter(unsigned short const*, int, int*, unsigned int*)
PUBLIC 1d100 0 base::WriteUnicodeCharacter(unsigned int, std::__cxx11::basic_string<char, std::char_traits<char>, std::allocator<char> >*)
PUBLIC 1d260 0 base::WriteUnicodeCharacter(unsigned int, std::__cxx11::basic_string<unsigned short, base::string16_char_traits, std::allocator<unsigned short> >*)
PUBLIC 1d340 0 base_icu::utf8_nextCharSafeBody(unsigned char const*, int*, int, int, signed char)
PUBLIC 1d5e0 0 base::c16memcmp(unsigned short const*, unsigned short const*, unsigned long)
PUBLIC 1d650 0 base::c16len(unsigned short const*)
PUBLIC 1d6a0 0 base::c16memchr(unsigned short const*, unsigned short, unsigned long)
PUBLIC 1d6f0 0 base::c16memmove(unsigned short*, unsigned short const*, unsigned long)
PUBLIC 1d730 0 base::c16memcpy(unsigned short*, unsigned short const*, unsigned long)
PUBLIC 1d770 0 base::c16memset(unsigned short*, unsigned short, unsigned long)
PUBLIC 1d8d0 0 base::operator<<(std::ostream&, std::__cxx11::basic_string<unsigned short, base::string16_char_traits, std::allocator<unsigned short> > const&)
PUBLIC 1d950 0 std::__cxx11::basic_string<unsigned short, base::string16_char_traits, std::allocator<unsigned short> >::_Alloc_hider::_Alloc_hider(unsigned short*, std::allocator<unsigned short> const&)
PUBLIC 1d980 0 std::__cxx11::basic_string<unsigned short, base::string16_char_traits, std::allocator<unsigned short> >::_Alloc_hider::_Alloc_hider(unsigned short*, std::allocator<unsigned short>&&)
PUBLIC 1d9b0 0 std::__cxx11::basic_string<unsigned short, base::string16_char_traits, std::allocator<unsigned short> >::_M_data(unsigned short*)
PUBLIC 1d9e0 0 std::__cxx11::basic_string<unsigned short, base::string16_char_traits, std::allocator<unsigned short> >::_M_length(unsigned long)
PUBLIC 1da10 0 std::__cxx11::basic_string<unsigned short, base::string16_char_traits, std::allocator<unsigned short> >::_M_data() const
PUBLIC 1da40 0 std::__cxx11::basic_string<unsigned short, base::string16_char_traits, std::allocator<unsigned short> >::_M_local_data()
PUBLIC 1da70 0 std::__cxx11::basic_string<unsigned short, base::string16_char_traits, std::allocator<unsigned short> >::_M_local_data() const
PUBLIC 1daa0 0 std::__cxx11::basic_string<unsigned short, base::string16_char_traits, std::allocator<unsigned short> >::_M_capacity(unsigned long)
PUBLIC 1dad0 0 std::__cxx11::basic_string<unsigned short, base::string16_char_traits, std::allocator<unsigned short> >::_M_set_length(unsigned long)
PUBLIC 1db10 0 std::__cxx11::basic_string<unsigned short, base::string16_char_traits, std::allocator<unsigned short> >::_M_is_local() const
PUBLIC 1db40 0 std::__cxx11::basic_string<unsigned short, base::string16_char_traits, std::allocator<unsigned short> >::_M_create(unsigned long&, unsigned long)
PUBLIC 1dbb0 0 std::__cxx11::basic_string<unsigned short, base::string16_char_traits, std::allocator<unsigned short> >::max_size() const
PUBLIC 1dbe0 0 std::__cxx11::basic_string<unsigned short, base::string16_char_traits, std::allocator<unsigned short> >::_M_get_allocator()
PUBLIC 1dc10 0 std::__cxx11::basic_string<unsigned short, base::string16_char_traits, std::allocator<unsigned short> >::_M_dispose()
PUBLIC 1dc60 0 std::__cxx11::basic_string<unsigned short, base::string16_char_traits, std::allocator<unsigned short> >::_M_destroy(unsigned long)
PUBLIC 1dc90 0 std::__cxx11::basic_string<unsigned short, base::string16_char_traits, std::allocator<unsigned short> >::_M_construct_aux_2(unsigned long, unsigned short)
PUBLIC 1de70 0 std::__cxx11::basic_string<unsigned short, base::string16_char_traits, std::allocator<unsigned short> >::_M_construct(unsigned long, unsigned short)
PUBLIC 1e050 0 std::__cxx11::basic_string<unsigned short, base::string16_char_traits, std::allocator<unsigned short> >::_S_assign(unsigned short*, unsigned long, unsigned short)
PUBLIC 1e1d0 0 std::__cxx11::basic_string<unsigned short, base::string16_char_traits, std::allocator<unsigned short> >::_M_get_allocator() const
PUBLIC 1e200 0 std::__cxx11::basic_string<unsigned short, base::string16_char_traits, std::allocator<unsigned short> >::_M_check(unsigned long, char const*) const
PUBLIC 1e250 0 std::__cxx11::basic_string<unsigned short, base::string16_char_traits, std::allocator<unsigned short> >::size() const
PUBLIC 1e280 0 std::__cxx11::basic_string<unsigned short, base::string16_char_traits, std::allocator<unsigned short> >::_M_check_length(unsigned long, unsigned long, char const*) const
PUBLIC 1e2d0 0 std::__cxx11::basic_string<unsigned short, base::string16_char_traits, std::allocator<unsigned short> >::_M_limit(unsigned long, unsigned long) const
PUBLIC 1e310 0 std::__cxx11::basic_string<unsigned short, base::string16_char_traits, std::allocator<unsigned short> >::_M_disjunct(unsigned short const*) const
PUBLIC 1e350 0 std::__cxx11::basic_string<unsigned short, base::string16_char_traits, std::allocator<unsigned short> >::_S_copy(unsigned short*, unsigned short const*, unsigned long)
PUBLIC 1e3a0 0 std::__cxx11::basic_string<unsigned short, base::string16_char_traits, std::allocator<unsigned short> >::_S_move(unsigned short*, unsigned short const*, unsigned long)
PUBLIC 1e3f0 0 std::__cxx11::basic_string<unsigned short, base::string16_char_traits, std::allocator<unsigned short> >::_S_copy_chars(unsigned short*, __gnu_cxx::__normal_iterator<unsigned short*, std::__cxx11::basic_string<unsigned short, base::string16_char_traits, std::allocator<unsigned short> > >, __gnu_cxx::__normal_iterator<unsigned short*, std::__cxx11::basic_string<unsigned short, base::string16_char_traits, std::allocator<unsigned short> > >)
PUBLIC 1e440 0 std::__cxx11::basic_string<unsigned short, base::string16_char_traits, std::allocator<unsigned short> >::_S_copy_chars(unsigned short*, unsigned short*, unsigned short*)
PUBLIC 1e490 0 std::__cxx11::basic_string<unsigned short, base::string16_char_traits, std::allocator<unsigned short> >::_S_copy_chars(unsigned short*, __gnu_cxx::__normal_iterator<unsigned short const*, std::__cxx11::basic_string<unsigned short, base::string16_char_traits, std::allocator<unsigned short> > >, __gnu_cxx::__normal_iterator<unsigned short const*, std::__cxx11::basic_string<unsigned short, base::string16_char_traits, std::allocator<unsigned short> > >)
PUBLIC 1e4e0 0 std::__cxx11::basic_string<unsigned short, base::string16_char_traits, std::allocator<unsigned short> >::_S_copy_chars(unsigned short*, unsigned short const*, unsigned short const*)
PUBLIC 1e530 0 std::__cxx11::basic_string<unsigned short, base::string16_char_traits, std::allocator<unsigned short> >::_S_compare(unsigned long, unsigned long)
PUBLIC 1e590 0 std::__cxx11::basic_string<unsigned short, base::string16_char_traits, std::allocator<unsigned short> >::_M_assign(std::__cxx11::basic_string<unsigned short, base::string16_char_traits, std::allocator<unsigned short> > const&)
PUBLIC 1e6c0 0 std::__cxx11::basic_string<unsigned short, base::string16_char_traits, std::allocator<unsigned short> >::length() const
PUBLIC 1e6f0 0 std::__cxx11::basic_string<unsigned short, base::string16_char_traits, std::allocator<unsigned short> >::capacity() const
PUBLIC 1e740 0 std::__cxx11::basic_string<unsigned short, base::string16_char_traits, std::allocator<unsigned short> >::_M_mutate(unsigned long, unsigned long, unsigned short const*, unsigned long)
PUBLIC 1e900 0 std::__cxx11::basic_string<unsigned short, base::string16_char_traits, std::allocator<unsigned short> >::_M_erase(unsigned long, unsigned long)
PUBLIC 1e980 0 std::__cxx11::basic_string<unsigned short, base::string16_char_traits, std::allocator<unsigned short> >::basic_string()
PUBLIC 1e9c0 0 std::__cxx11::basic_string<unsigned short, base::string16_char_traits, std::allocator<unsigned short> >::basic_string(std::allocator<unsigned short> const&)
PUBLIC 1ea00 0 std::__cxx11::basic_string<unsigned short, base::string16_char_traits, std::allocator<unsigned short> >::basic_string(std::__cxx11::basic_string<unsigned short, base::string16_char_traits, std::allocator<unsigned short> > const&)
PUBLIC 1ead0 0 std::__cxx11::basic_string<unsigned short, base::string16_char_traits, std::allocator<unsigned short> >::basic_string(std::__cxx11::basic_string<unsigned short, base::string16_char_traits, std::allocator<unsigned short> > const&, unsigned long, std::allocator<unsigned short> const&)
PUBLIC 1ebd0 0 std::__cxx11::basic_string<unsigned short, base::string16_char_traits, std::allocator<unsigned short> >::basic_string(std::__cxx11::basic_string<unsigned short, base::string16_char_traits, std::allocator<unsigned short> > const&, unsigned long, unsigned long)
PUBLIC 1ece0 0 std::__cxx11::basic_string<unsigned short, base::string16_char_traits, std::allocator<unsigned short> >::basic_string(std::__cxx11::basic_string<unsigned short, base::string16_char_traits, std::allocator<unsigned short> > const&, unsigned long, unsigned long, std::allocator<unsigned short> const&)
PUBLIC 1edf0 0 std::__cxx11::basic_string<unsigned short, base::string16_char_traits, std::allocator<unsigned short> >::basic_string(unsigned short const*, unsigned long, std::allocator<unsigned short> const&)
PUBLIC 1eec0 0 std::__cxx11::basic_string<unsigned short, base::string16_char_traits, std::allocator<unsigned short> >::basic_string(unsigned short const*, std::allocator<unsigned short> const&)
PUBLIC 1efa0 0 std::__cxx11::basic_string<unsigned short, base::string16_char_traits, std::allocator<unsigned short> >::basic_string(unsigned long, unsigned short, std::allocator<unsigned short> const&)
PUBLIC 1f180 0 std::__cxx11::basic_string<unsigned short, base::string16_char_traits, std::allocator<unsigned short> >::basic_string(std::__cxx11::basic_string<unsigned short, base::string16_char_traits, std::allocator<unsigned short> >&&)
PUBLIC 1f1f0 0 std::__cxx11::basic_string<unsigned short, base::string16_char_traits, std::allocator<unsigned short> >::basic_string(std::initializer_list<unsigned short>, std::allocator<unsigned short> const&)
PUBLIC 1f2c0 0 std::__cxx11::basic_string<unsigned short, base::string16_char_traits, std::allocator<unsigned short> >::basic_string(std::__cxx11::basic_string<unsigned short, base::string16_char_traits, std::allocator<unsigned short> > const&, std::allocator<unsigned short> const&)
PUBLIC 1f380 0 std::__cxx11::basic_string<unsigned short, base::string16_char_traits, std::allocator<unsigned short> >::begin() const
PUBLIC 1f3b0 0 std::__cxx11::basic_string<unsigned short, base::string16_char_traits, std::allocator<unsigned short> >::end() const
PUBLIC 1f3e0 0 std::__cxx11::basic_string<unsigned short, base::string16_char_traits, std::allocator<unsigned short> >::basic_string(std::__cxx11::basic_string<unsigned short, base::string16_char_traits, std::allocator<unsigned short> >&&, std::allocator<unsigned short> const&)
PUBLIC 1f470 0 std::__cxx11::basic_string<unsigned short, base::string16_char_traits, std::allocator<unsigned short> >::~basic_string()
PUBLIC 1f4c0 0 std::__cxx11::basic_string<unsigned short, base::string16_char_traits, std::allocator<unsigned short> >::operator=(std::__cxx11::basic_string<unsigned short, base::string16_char_traits, std::allocator<unsigned short> > const&)
PUBLIC 1f500 0 std::__cxx11::basic_string<unsigned short, base::string16_char_traits, std::allocator<unsigned short> >::assign(std::__cxx11::basic_string<unsigned short, base::string16_char_traits, std::allocator<unsigned short> > const&)
PUBLIC 1f540 0 std::__cxx11::basic_string<unsigned short, base::string16_char_traits, std::allocator<unsigned short> >::operator=(unsigned short const*)
PUBLIC 1f5a0 0 std::__cxx11::basic_string<unsigned short, base::string16_char_traits, std::allocator<unsigned short> >::assign(unsigned short const*)
PUBLIC 1f600 0 std::__cxx11::basic_string<unsigned short, base::string16_char_traits, std::allocator<unsigned short> >::operator=(unsigned short)
PUBLIC 1f680 0 std::__cxx11::basic_string<unsigned short, base::string16_char_traits, std::allocator<unsigned short> >::assign(unsigned long, unsigned short)
PUBLIC 1f880 0 std::__cxx11::basic_string<unsigned short, base::string16_char_traits, std::allocator<unsigned short> >::operator=(std::__cxx11::basic_string<unsigned short, base::string16_char_traits, std::allocator<unsigned short> >&&)
PUBLIC 1f950 0 std::__cxx11::basic_string<unsigned short, base::string16_char_traits, std::allocator<unsigned short> >::clear()
PUBLIC 1f990 0 std::__cxx11::basic_string<unsigned short, base::string16_char_traits, std::allocator<unsigned short> >::operator=(std::initializer_list<unsigned short>)
PUBLIC 1f9e0 0 std::__cxx11::basic_string<unsigned short, base::string16_char_traits, std::allocator<unsigned short> >::assign(unsigned short const*, unsigned long)
PUBLIC 1fa20 0 std::__cxx11::basic_string<unsigned short, base::string16_char_traits, std::allocator<unsigned short> >::begin()
PUBLIC 1fa50 0 std::__cxx11::basic_string<unsigned short, base::string16_char_traits, std::allocator<unsigned short> >::end()
PUBLIC 1fa80 0 std::__cxx11::basic_string<unsigned short, base::string16_char_traits, std::allocator<unsigned short> >::rbegin()
PUBLIC 1fac0 0 std::__cxx11::basic_string<unsigned short, base::string16_char_traits, std::allocator<unsigned short> >::rbegin() const
PUBLIC 1fb00 0 std::__cxx11::basic_string<unsigned short, base::string16_char_traits, std::allocator<unsigned short> >::rend()
PUBLIC 1fb30 0 std::__cxx11::basic_string<unsigned short, base::string16_char_traits, std::allocator<unsigned short> >::rend() const
PUBLIC 1fb60 0 std::__cxx11::basic_string<unsigned short, base::string16_char_traits, std::allocator<unsigned short> >::cbegin() const
PUBLIC 1fb90 0 std::__cxx11::basic_string<unsigned short, base::string16_char_traits, std::allocator<unsigned short> >::cend() const
PUBLIC 1fbc0 0 std::__cxx11::basic_string<unsigned short, base::string16_char_traits, std::allocator<unsigned short> >::crbegin() const
PUBLIC 1fc00 0 std::__cxx11::basic_string<unsigned short, base::string16_char_traits, std::allocator<unsigned short> >::crend() const
PUBLIC 1fc30 0 std::__cxx11::basic_string<unsigned short, base::string16_char_traits, std::allocator<unsigned short> >::resize(unsigned long, unsigned short)
PUBLIC 1fe40 0 std::__cxx11::basic_string<unsigned short, base::string16_char_traits, std::allocator<unsigned short> >::append(unsigned long, unsigned short)
PUBLIC 20040 0 std::__cxx11::basic_string<unsigned short, base::string16_char_traits, std::allocator<unsigned short> >::resize(unsigned long)
PUBLIC 20120 0 std::__cxx11::basic_string<unsigned short, base::string16_char_traits, std::allocator<unsigned short> >::shrink_to_fit()
PUBLIC 20150 0 std::__cxx11::basic_string<unsigned short, base::string16_char_traits, std::allocator<unsigned short> >::reserve(unsigned long)
PUBLIC 202c0 0 std::__cxx11::basic_string<unsigned short, base::string16_char_traits, std::allocator<unsigned short> >::empty() const
PUBLIC 202f0 0 std::__cxx11::basic_string<unsigned short, base::string16_char_traits, std::allocator<unsigned short> >::operator[](unsigned long) const
PUBLIC 20320 0 std::__cxx11::basic_string<unsigned short, base::string16_char_traits, std::allocator<unsigned short> >::operator[](unsigned long)
PUBLIC 20350 0 std::__cxx11::basic_string<unsigned short, base::string16_char_traits, std::allocator<unsigned short> >::at(unsigned long) const
PUBLIC 203a0 0 std::__cxx11::basic_string<unsigned short, base::string16_char_traits, std::allocator<unsigned short> >::at(unsigned long)
PUBLIC 203f0 0 std::__cxx11::basic_string<unsigned short, base::string16_char_traits, std::allocator<unsigned short> >::front()
PUBLIC 20420 0 std::__cxx11::basic_string<unsigned short, base::string16_char_traits, std::allocator<unsigned short> >::front() const
PUBLIC 20450 0 std::__cxx11::basic_string<unsigned short, base::string16_char_traits, std::allocator<unsigned short> >::back()
PUBLIC 20490 0 std::__cxx11::basic_string<unsigned short, base::string16_char_traits, std::allocator<unsigned short> >::back() const
PUBLIC 204d0 0 std::__cxx11::basic_string<unsigned short, base::string16_char_traits, std::allocator<unsigned short> >::operator+=(std::__cxx11::basic_string<unsigned short, base::string16_char_traits, std::allocator<unsigned short> > const&)
PUBLIC 20570 0 std::__cxx11::basic_string<unsigned short, base::string16_char_traits, std::allocator<unsigned short> >::append(std::__cxx11::basic_string<unsigned short, base::string16_char_traits, std::allocator<unsigned short> > const&)
PUBLIC 20610 0 std::__cxx11::basic_string<unsigned short, base::string16_char_traits, std::allocator<unsigned short> >::operator+=(unsigned short const*)
PUBLIC 206f0 0 std::__cxx11::basic_string<unsigned short, base::string16_char_traits, std::allocator<unsigned short> >::append(unsigned short const*)
PUBLIC 207d0 0 std::__cxx11::basic_string<unsigned short, base::string16_char_traits, std::allocator<unsigned short> >::operator+=(unsigned short)
PUBLIC 20860 0 std::__cxx11::basic_string<unsigned short, base::string16_char_traits, std::allocator<unsigned short> >::push_back(unsigned short)
PUBLIC 208f0 0 std::__cxx11::basic_string<unsigned short, base::string16_char_traits, std::allocator<unsigned short> >::operator+=(std::initializer_list<unsigned short>)
PUBLIC 209b0 0 std::__cxx11::basic_string<unsigned short, base::string16_char_traits, std::allocator<unsigned short> >::append(unsigned short const*, unsigned long)
PUBLIC 20a70 0 std::__cxx11::basic_string<unsigned short, base::string16_char_traits, std::allocator<unsigned short> >::_M_append(unsigned short const*, unsigned long)
PUBLIC 20b20 0 std::__cxx11::basic_string<unsigned short, base::string16_char_traits, std::allocator<unsigned short> >::append(std::__cxx11::basic_string<unsigned short, base::string16_char_traits, std::allocator<unsigned short> > const&, unsigned long, unsigned long)
PUBLIC 20c00 0 std::__cxx11::basic_string<unsigned short, base::string16_char_traits, std::allocator<unsigned short> >::_M_replace_aux(unsigned long, unsigned long, unsigned long, unsigned short)
PUBLIC 20e50 0 std::__cxx11::basic_string<unsigned short, base::string16_char_traits, std::allocator<unsigned short> >::append(std::initializer_list<unsigned short>)
PUBLIC 20f10 0 std::__cxx11::basic_string<unsigned short, base::string16_char_traits, std::allocator<unsigned short> >::assign(std::__cxx11::basic_string<unsigned short, base::string16_char_traits, std::allocator<unsigned short> >&&)
PUBLIC 20fe0 0 std::__cxx11::basic_string<unsigned short, base::string16_char_traits, std::allocator<unsigned short> >::assign(std::__cxx11::basic_string<unsigned short, base::string16_char_traits, std::allocator<unsigned short> > const&, unsigned long, unsigned long)
PUBLIC 21050 0 std::__cxx11::basic_string<unsigned short, base::string16_char_traits, std::allocator<unsigned short> >::_M_replace(unsigned long, unsigned long, unsigned short const*, unsigned long)
PUBLIC 212d0 0 std::__cxx11::basic_string<unsigned short, base::string16_char_traits, std::allocator<unsigned short> >::assign(std::initializer_list<unsigned short>)
PUBLIC 21310 0 std::__cxx11::basic_string<unsigned short, base::string16_char_traits, std::allocator<unsigned short> >::insert(__gnu_cxx::__normal_iterator<unsigned short const*, std::__cxx11::basic_string<unsigned short, base::string16_char_traits, std::allocator<unsigned short> > >, unsigned long, unsigned short)
PUBLIC 21560 0 std::__cxx11::basic_string<unsigned short, base::string16_char_traits, std::allocator<unsigned short> >::replace(__gnu_cxx::__normal_iterator<unsigned short const*, std::__cxx11::basic_string<unsigned short, base::string16_char_traits, std::allocator<unsigned short> > >, __gnu_cxx::__normal_iterator<unsigned short const*, std::__cxx11::basic_string<unsigned short, base::string16_char_traits, std::allocator<unsigned short> > >, unsigned long, unsigned short)
PUBLIC 217c0 0 std::__cxx11::basic_string<unsigned short, base::string16_char_traits, std::allocator<unsigned short> >::insert(__gnu_cxx::__normal_iterator<unsigned short*, std::__cxx11::basic_string<unsigned short, base::string16_char_traits, std::allocator<unsigned short> > >, std::initializer_list<unsigned short>)
PUBLIC 21830 0 std::__cxx11::basic_string<unsigned short, base::string16_char_traits, std::allocator<unsigned short> >::insert(unsigned long, unsigned short const*, unsigned long)
PUBLIC 21890 0 std::__cxx11::basic_string<unsigned short, base::string16_char_traits, std::allocator<unsigned short> >::insert(unsigned long, std::__cxx11::basic_string<unsigned short, base::string16_char_traits, std::allocator<unsigned short> > const&)
PUBLIC 218f0 0 std::__cxx11::basic_string<unsigned short, base::string16_char_traits, std::allocator<unsigned short> >::replace(unsigned long, unsigned long, unsigned short const*, unsigned long)
PUBLIC 21950 0 std::__cxx11::basic_string<unsigned short, base::string16_char_traits, std::allocator<unsigned short> >::insert(unsigned long, std::__cxx11::basic_string<unsigned short, base::string16_char_traits, std::allocator<unsigned short> > const&, unsigned long, unsigned long)
PUBLIC 219e0 0 std::__cxx11::basic_string<unsigned short, base::string16_char_traits, std::allocator<unsigned short> >::insert(unsigned long, unsigned short const*)
PUBLIC 21a60 0 std::__cxx11::basic_string<unsigned short, base::string16_char_traits, std::allocator<unsigned short> >::insert(unsigned long, unsigned long, unsigned short)
PUBLIC 21cd0 0 std::__cxx11::basic_string<unsigned short, base::string16_char_traits, std::allocator<unsigned short> >::insert(__gnu_cxx::__normal_iterator<unsigned short const*, std::__cxx11::basic_string<unsigned short, base::string16_char_traits, std::allocator<unsigned short> > >, unsigned short)
PUBLIC 21dc0 0 std::__cxx11::basic_string<unsigned short, base::string16_char_traits, std::allocator<unsigned short> >::erase(unsigned long, unsigned long)
PUBLIC 21e80 0 std::__cxx11::basic_string<unsigned short, base::string16_char_traits, std::allocator<unsigned short> >::erase(__gnu_cxx::__normal_iterator<unsigned short const*, std::__cxx11::basic_string<unsigned short, base::string16_char_traits, std::allocator<unsigned short> > >)
PUBLIC 21f10 0 std::__cxx11::basic_string<unsigned short, base::string16_char_traits, std::allocator<unsigned short> >::erase(__gnu_cxx::__normal_iterator<unsigned short const*, std::__cxx11::basic_string<unsigned short, base::string16_char_traits, std::allocator<unsigned short> > >, __gnu_cxx::__normal_iterator<unsigned short const*, std::__cxx11::basic_string<unsigned short, base::string16_char_traits, std::allocator<unsigned short> > >)
PUBLIC 21fc0 0 std::__cxx11::basic_string<unsigned short, base::string16_char_traits, std::allocator<unsigned short> >::pop_back()
PUBLIC 22000 0 std::__cxx11::basic_string<unsigned short, base::string16_char_traits, std::allocator<unsigned short> >::replace(unsigned long, unsigned long, std::__cxx11::basic_string<unsigned short, base::string16_char_traits, std::allocator<unsigned short> > const&)
PUBLIC 22070 0 std::__cxx11::basic_string<unsigned short, base::string16_char_traits, std::allocator<unsigned short> >::replace(unsigned long, unsigned long, std::__cxx11::basic_string<unsigned short, base::string16_char_traits, std::allocator<unsigned short> > const&, unsigned long, unsigned long)
PUBLIC 22120 0 std::__cxx11::basic_string<unsigned short, base::string16_char_traits, std::allocator<unsigned short> >::replace(unsigned long, unsigned long, unsigned short const*)
PUBLIC 221b0 0 std::__cxx11::basic_string<unsigned short, base::string16_char_traits, std::allocator<unsigned short> >::replace(unsigned long, unsigned long, unsigned long, unsigned short)
PUBLIC 22430 0 std::__cxx11::basic_string<unsigned short, base::string16_char_traits, std::allocator<unsigned short> >::replace(__gnu_cxx::__normal_iterator<unsigned short const*, std::__cxx11::basic_string<unsigned short, base::string16_char_traits, std::allocator<unsigned short> > >, __gnu_cxx::__normal_iterator<unsigned short const*, std::__cxx11::basic_string<unsigned short, base::string16_char_traits, std::allocator<unsigned short> > >, std::__cxx11::basic_string<unsigned short, base::string16_char_traits, std::allocator<unsigned short> > const&)
PUBLIC 224a0 0 std::__cxx11::basic_string<unsigned short, base::string16_char_traits, std::allocator<unsigned short> >::replace(__gnu_cxx::__normal_iterator<unsigned short const*, std::__cxx11::basic_string<unsigned short, base::string16_char_traits, std::allocator<unsigned short> > >, __gnu_cxx::__normal_iterator<unsigned short const*, std::__cxx11::basic_string<unsigned short, base::string16_char_traits, std::allocator<unsigned short> > >, unsigned short const*, unsigned long)
PUBLIC 22510 0 std::__cxx11::basic_string<unsigned short, base::string16_char_traits, std::allocator<unsigned short> >::replace(__gnu_cxx::__normal_iterator<unsigned short const*, std::__cxx11::basic_string<unsigned short, base::string16_char_traits, std::allocator<unsigned short> > >, __gnu_cxx::__normal_iterator<unsigned short const*, std::__cxx11::basic_string<unsigned short, base::string16_char_traits, std::allocator<unsigned short> > >, unsigned short const*)
PUBLIC 225a0 0 std::__cxx11::basic_string<unsigned short, base::string16_char_traits, std::allocator<unsigned short> >::replace(__gnu_cxx::__normal_iterator<unsigned short const*, std::__cxx11::basic_string<unsigned short, base::string16_char_traits, std::allocator<unsigned short> > >, __gnu_cxx::__normal_iterator<unsigned short const*, std::__cxx11::basic_string<unsigned short, base::string16_char_traits, std::allocator<unsigned short> > >, unsigned short*, unsigned short*)
PUBLIC 22610 0 std::__cxx11::basic_string<unsigned short, base::string16_char_traits, std::allocator<unsigned short> >::replace(__gnu_cxx::__normal_iterator<unsigned short const*, std::__cxx11::basic_string<unsigned short, base::string16_char_traits, std::allocator<unsigned short> > >, __gnu_cxx::__normal_iterator<unsigned short const*, std::__cxx11::basic_string<unsigned short, base::string16_char_traits, std::allocator<unsigned short> > >, unsigned short const*, unsigned short const*)
PUBLIC 22680 0 std::__cxx11::basic_string<unsigned short, base::string16_char_traits, std::allocator<unsigned short> >::replace(__gnu_cxx::__normal_iterator<unsigned short const*, std::__cxx11::basic_string<unsigned short, base::string16_char_traits, std::allocator<unsigned short> > >, __gnu_cxx::__normal_iterator<unsigned short const*, std::__cxx11::basic_string<unsigned short, base::string16_char_traits, std::allocator<unsigned short> > >, __gnu_cxx::__normal_iterator<unsigned short*, std::__cxx11::basic_string<unsigned short, base::string16_char_traits, std::allocator<unsigned short> > >, __gnu_cxx::__normal_iterator<unsigned short*, std::__cxx11::basic_string<unsigned short, base::string16_char_traits, std::allocator<unsigned short> > >)
PUBLIC 226f0 0 std::__cxx11::basic_string<unsigned short, base::string16_char_traits, std::allocator<unsigned short> >::replace(__gnu_cxx::__normal_iterator<unsigned short const*, std::__cxx11::basic_string<unsigned short, base::string16_char_traits, std::allocator<unsigned short> > >, __gnu_cxx::__normal_iterator<unsigned short const*, std::__cxx11::basic_string<unsigned short, base::string16_char_traits, std::allocator<unsigned short> > >, __gnu_cxx::__normal_iterator<unsigned short const*, std::__cxx11::basic_string<unsigned short, base::string16_char_traits, std::allocator<unsigned short> > >, __gnu_cxx::__normal_iterator<unsigned short const*, std::__cxx11::basic_string<unsigned short, base::string16_char_traits, std::allocator<unsigned short> > >)
PUBLIC 22760 0 std::__cxx11::basic_string<unsigned short, base::string16_char_traits, std::allocator<unsigned short> >::replace(__gnu_cxx::__normal_iterator<unsigned short const*, std::__cxx11::basic_string<unsigned short, base::string16_char_traits, std::allocator<unsigned short> > >, __gnu_cxx::__normal_iterator<unsigned short const*, std::__cxx11::basic_string<unsigned short, base::string16_char_traits, std::allocator<unsigned short> > >, std::initializer_list<unsigned short>)
PUBLIC 227d0 0 std::__cxx11::basic_string<unsigned short, base::string16_char_traits, std::allocator<unsigned short> >::copy(unsigned short*, unsigned long, unsigned long) const
PUBLIC 22870 0 std::__cxx11::basic_string<unsigned short, base::string16_char_traits, std::allocator<unsigned short> >::swap(std::__cxx11::basic_string<unsigned short, base::string16_char_traits, std::allocator<unsigned short> >&)
PUBLIC 229a0 0 std::__cxx11::basic_string<unsigned short, base::string16_char_traits, std::allocator<unsigned short> >::c_str() const
PUBLIC 229d0 0 std::__cxx11::basic_string<unsigned short, base::string16_char_traits, std::allocator<unsigned short> >::data() const
PUBLIC 22a00 0 std::__cxx11::basic_string<unsigned short, base::string16_char_traits, std::allocator<unsigned short> >::get_allocator() const
PUBLIC 22a30 0 std::__cxx11::basic_string<unsigned short, base::string16_char_traits, std::allocator<unsigned short> >::find(unsigned short const*, unsigned long, unsigned long) const
PUBLIC 22b30 0 std::__cxx11::basic_string<unsigned short, base::string16_char_traits, std::allocator<unsigned short> >::find(std::__cxx11::basic_string<unsigned short, base::string16_char_traits, std::allocator<unsigned short> > const&, unsigned long) const
PUBLIC 22c30 0 std::__cxx11::basic_string<unsigned short, base::string16_char_traits, std::allocator<unsigned short> >::find(unsigned short const*, unsigned long) const
PUBLIC 22d40 0 std::__cxx11::basic_string<unsigned short, base::string16_char_traits, std::allocator<unsigned short> >::find(unsigned short, unsigned long) const
PUBLIC 22db0 0 std::__cxx11::basic_string<unsigned short, base::string16_char_traits, std::allocator<unsigned short> >::rfind(std::__cxx11::basic_string<unsigned short, base::string16_char_traits, std::allocator<unsigned short> > const&, unsigned long) const
PUBLIC 22e50 0 std::__cxx11::basic_string<unsigned short, base::string16_char_traits, std::allocator<unsigned short> >::rfind(unsigned short const*, unsigned long, unsigned long) const
PUBLIC 22ef0 0 std::__cxx11::basic_string<unsigned short, base::string16_char_traits, std::allocator<unsigned short> >::rfind(unsigned short const*, unsigned long) const
PUBLIC 22fb0 0 std::__cxx11::basic_string<unsigned short, base::string16_char_traits, std::allocator<unsigned short> >::rfind(unsigned short, unsigned long) const
PUBLIC 23020 0 std::__cxx11::basic_string<unsigned short, base::string16_char_traits, std::allocator<unsigned short> >::find_first_of(std::__cxx11::basic_string<unsigned short, base::string16_char_traits, std::allocator<unsigned short> > const&, unsigned long) const
PUBLIC 230c0 0 std::__cxx11::basic_string<unsigned short, base::string16_char_traits, std::allocator<unsigned short> >::find_first_of(unsigned short const*, unsigned long, unsigned long) const
PUBLIC 23160 0 std::__cxx11::basic_string<unsigned short, base::string16_char_traits, std::allocator<unsigned short> >::find_first_of(unsigned short const*, unsigned long) const
PUBLIC 23220 0 std::__cxx11::basic_string<unsigned short, base::string16_char_traits, std::allocator<unsigned short> >::find_first_of(unsigned short, unsigned long) const
PUBLIC 23290 0 std::__cxx11::basic_string<unsigned short, base::string16_char_traits, std::allocator<unsigned short> >::find_last_of(std::__cxx11::basic_string<unsigned short, base::string16_char_traits, std::allocator<unsigned short> > const&, unsigned long) const
PUBLIC 23340 0 std::__cxx11::basic_string<unsigned short, base::string16_char_traits, std::allocator<unsigned short> >::find_last_of(unsigned short const*, unsigned long, unsigned long) const
PUBLIC 233f0 0 std::__cxx11::basic_string<unsigned short, base::string16_char_traits, std::allocator<unsigned short> >::find_last_of(unsigned short const*, unsigned long) const
PUBLIC 234c0 0 std::__cxx11::basic_string<unsigned short, base::string16_char_traits, std::allocator<unsigned short> >::find_last_of(unsigned short, unsigned long) const
PUBLIC 23530 0 std::__cxx11::basic_string<unsigned short, base::string16_char_traits, std::allocator<unsigned short> >::find_first_not_of(std::__cxx11::basic_string<unsigned short, base::string16_char_traits, std::allocator<unsigned short> > const&, unsigned long) const
PUBLIC 235d0 0 std::__cxx11::basic_string<unsigned short, base::string16_char_traits, std::allocator<unsigned short> >::find_first_not_of(unsigned short const*, unsigned long, unsigned long) const
PUBLIC 23670 0 std::__cxx11::basic_string<unsigned short, base::string16_char_traits, std::allocator<unsigned short> >::find_first_not_of(unsigned short const*, unsigned long) const
PUBLIC 23730 0 std::__cxx11::basic_string<unsigned short, base::string16_char_traits, std::allocator<unsigned short> >::find_first_not_of(unsigned short, unsigned long) const
PUBLIC 23790 0 std::__cxx11::basic_string<unsigned short, base::string16_char_traits, std::allocator<unsigned short> >::find_last_not_of(std::__cxx11::basic_string<unsigned short, base::string16_char_traits, std::allocator<unsigned short> > const&, unsigned long) const
PUBLIC 23840 0 std::__cxx11::basic_string<unsigned short, base::string16_char_traits, std::allocator<unsigned short> >::find_last_not_of(unsigned short const*, unsigned long, unsigned long) const
PUBLIC 238e0 0 std::__cxx11::basic_string<unsigned short, base::string16_char_traits, std::allocator<unsigned short> >::find_last_not_of(unsigned short const*, unsigned long) const
PUBLIC 239a0 0 std::__cxx11::basic_string<unsigned short, base::string16_char_traits, std::allocator<unsigned short> >::find_last_not_of(unsigned short, unsigned long) const
PUBLIC 23a00 0 std::__cxx11::basic_string<unsigned short, base::string16_char_traits, std::allocator<unsigned short> >::substr(unsigned long, unsigned long) const
PUBLIC 23b10 0 std::__cxx11::basic_string<unsigned short, base::string16_char_traits, std::allocator<unsigned short> >::compare(std::__cxx11::basic_string<unsigned short, base::string16_char_traits, std::allocator<unsigned short> > const&) const
PUBLIC 23bb0 0 std::__cxx11::basic_string<unsigned short, base::string16_char_traits, std::allocator<unsigned short> >::compare(unsigned long, unsigned long, std::__cxx11::basic_string<unsigned short, base::string16_char_traits, std::allocator<unsigned short> > const&) const
PUBLIC 23c80 0 std::__cxx11::basic_string<unsigned short, base::string16_char_traits, std::allocator<unsigned short> >::compare(unsigned long, unsigned long, std::__cxx11::basic_string<unsigned short, base::string16_char_traits, std::allocator<unsigned short> > const&, unsigned long, unsigned long) const
PUBLIC 23d80 0 std::__cxx11::basic_string<unsigned short, base::string16_char_traits, std::allocator<unsigned short> >::compare(unsigned short const*) const
PUBLIC 23e40 0 std::__cxx11::basic_string<unsigned short, base::string16_char_traits, std::allocator<unsigned short> >::compare(unsigned long, unsigned long, unsigned short const*) const
PUBLIC 23f20 0 std::__cxx11::basic_string<unsigned short, base::string16_char_traits, std::allocator<unsigned short> >::compare(unsigned long, unsigned long, unsigned short const*, unsigned long) const
PUBLIC 23fe0 0 __libc_csu_init
PUBLIC 24050 0 __libc_csu_fini
PUBLIC 24054 0 _fini
STACK CFI INIT 3740 2b .cfa: $rsp 8 + .ra: .cfa -8 + ^
STACK CFI INIT 3770 2 .cfa: $rsp 8 + .ra: .cfa -8 + ^
STACK CFI INIT 2ef0 850 .cfa: $rsp 16 + .ra: .cfa -8 + ^
STACK CFI 2ef6 .cfa: $rsp 24 +
STACK CFI INIT 3830 59 .cfa: $rsp 8 + .ra: .cfa -8 + ^
STACK CFI 3831 $rbp: .cfa -16 + ^ .cfa: $rsp 16 +
STACK CFI 3834 .cfa: $rbp 16 +
STACK CFI INIT 3890 9fc .cfa: $rsp 8 + .ra: .cfa -8 + ^
STACK CFI 3891 $rbp: .cfa -16 + ^ .cfa: $rsp 16 +
STACK CFI 3894 .cfa: $rbp 16 +
STACK CFI INIT 4290 10 .cfa: $rsp 8 + .ra: .cfa -8 + ^
STACK CFI 4291 $rbp: .cfa -16 + ^ .cfa: $rsp 16 +
STACK CFI 4294 .cfa: $rbp 16 +
STACK CFI INIT 42a0 6a .cfa: $rsp 8 + .ra: .cfa -8 + ^
STACK CFI 42a1 $rbp: .cfa -16 + ^ .cfa: $rsp 16 +
STACK CFI 42a4 .cfa: $rbp 16 +
STACK CFI INIT 4310 84 .cfa: $rsp 8 + .ra: .cfa -8 + ^
STACK CFI 4311 $rbp: .cfa -16 + ^ .cfa: $rsp 16 +
STACK CFI 4314 .cfa: $rbp 16 +
STACK CFI INIT 43a0 1b .cfa: $rsp 8 + .ra: .cfa -8 + ^
STACK CFI 43a1 $rbp: .cfa -16 + ^ .cfa: $rsp 16 +
STACK CFI 43a4 .cfa: $rbp 16 +
STACK CFI INIT 43c0 f7 .cfa: $rsp 8 + .ra: .cfa -8 + ^
STACK CFI 43c1 $rbp: .cfa -16 + ^ .cfa: $rsp 16 +
STACK CFI 43c4 .cfa: $rbp 16 +
STACK CFI INIT 44c0 2d .cfa: $rsp 8 + .ra: .cfa -8 + ^
STACK CFI 44c1 $rbp: .cfa -16 + ^ .cfa: $rsp 16 +
STACK CFI 44c4 .cfa: $rbp 16 +
STACK CFI INIT 44f0 36 .cfa: $rsp 8 + .ra: .cfa -8 + ^
STACK CFI 44f1 $rbp: .cfa -16 + ^ .cfa: $rsp 16 +
STACK CFI 44f4 .cfa: $rbp 16 +
STACK CFI INIT 4530 26 .cfa: $rsp 8 + .ra: .cfa -8 + ^
STACK CFI 4531 $rbp: .cfa -16 + ^ .cfa: $rsp 16 +
STACK CFI 4534 .cfa: $rbp 16 +
STACK CFI INIT 4560 1b .cfa: $rsp 8 + .ra: .cfa -8 + ^
STACK CFI 4561 $rbp: .cfa -16 + ^ .cfa: $rsp 16 +
STACK CFI 4564 .cfa: $rbp 16 +
STACK CFI INIT 4580 78 .cfa: $rsp 8 + .ra: .cfa -8 + ^
STACK CFI 4581 $rbp: .cfa -16 + ^ .cfa: $rsp 16 +
STACK CFI 4584 .cfa: $rbp 16 +
STACK CFI INIT 4600 6d .cfa: $rsp 8 + .ra: .cfa -8 + ^
STACK CFI 4601 $rbp: .cfa -16 + ^ .cfa: $rsp 16 +
STACK CFI 4604 .cfa: $rbp 16 +
STACK CFI INIT 4670 1b .cfa: $rsp 8 + .ra: .cfa -8 + ^
STACK CFI 4671 $rbp: .cfa -16 + ^ .cfa: $rsp 16 +
STACK CFI 4674 .cfa: $rbp 16 +
STACK CFI INIT 4690 1b .cfa: $rsp 8 + .ra: .cfa -8 + ^
STACK CFI 4691 $rbp: .cfa -16 + ^ .cfa: $rsp 16 +
STACK CFI 4694 .cfa: $rbp 16 +
STACK CFI INIT 46b0 41 .cfa: $rsp 8 + .ra: .cfa -8 + ^
STACK CFI 46b1 $rbp: .cfa -16 + ^ .cfa: $rsp 16 +
STACK CFI 46b4 .cfa: $rbp 16 +
STACK CFI INIT 4700 1b .cfa: $rsp 8 + .ra: .cfa -8 + ^
STACK CFI 4701 $rbp: .cfa -16 + ^ .cfa: $rsp 16 +
STACK CFI 4704 .cfa: $rbp 16 +
STACK CFI INIT 4720 a .cfa: $rsp 8 + .ra: .cfa -8 + ^
STACK CFI 4721 $rbp: .cfa -16 + ^ .cfa: $rsp 16 +
STACK CFI 4724 .cfa: $rbp 16 +
STACK CFI INIT 4730 33 .cfa: $rsp 8 + .ra: .cfa -8 + ^
STACK CFI 4731 $rbp: .cfa -16 + ^ .cfa: $rsp 16 +
STACK CFI 4734 .cfa: $rbp 16 +
STACK CFI INIT 4770 a .cfa: $rsp 8 + .ra: .cfa -8 + ^
STACK CFI 4771 $rbp: .cfa -16 + ^ .cfa: $rsp 16 +
STACK CFI 4774 .cfa: $rbp 16 +
STACK CFI INIT 4780 26 .cfa: $rsp 8 + .ra: .cfa -8 + ^
STACK CFI 4781 $rbp: .cfa -16 + ^ .cfa: $rsp 16 +
STACK CFI 4784 .cfa: $rbp 16 +
STACK CFI INIT 47b0 f .cfa: $rsp 8 + .ra: .cfa -8 + ^
STACK CFI 47b1 .cfa: $rsp 16 +
STACK CFI INIT 47c0 54 .cfa: $rsp 8 + .ra: .cfa -8 + ^
STACK CFI 47c1 $rbp: .cfa -16 + ^ .cfa: $rsp 16 +
STACK CFI 47c4 .cfa: $rbp 16 +
STACK CFI INIT 4820 6b .cfa: $rsp 8 + .ra: .cfa -8 + ^
STACK CFI 4821 $rbp: .cfa -16 + ^ .cfa: $rsp 16 +
STACK CFI 4824 .cfa: $rbp 16 +
STACK CFI INIT 4890 15 .cfa: $rsp 8 + .ra: .cfa -8 + ^
STACK CFI 4891 $rbp: .cfa -16 + ^ .cfa: $rsp 16 +
STACK CFI 4894 .cfa: $rbp 16 +
STACK CFI INIT 48b0 1b .cfa: $rsp 8 + .ra: .cfa -8 + ^
STACK CFI 48b1 $rbp: .cfa -16 + ^ .cfa: $rsp 16 +
STACK CFI 48b4 .cfa: $rbp 16 +
STACK CFI INIT 48d0 15 .cfa: $rsp 8 + .ra: .cfa -8 + ^
STACK CFI 48d1 $rbp: .cfa -16 + ^ .cfa: $rsp 16 +
STACK CFI 48d4 .cfa: $rbp 16 +
STACK CFI INIT 48f0 15 .cfa: $rsp 8 + .ra: .cfa -8 + ^
STACK CFI 48f1 $rbp: .cfa -16 + ^ .cfa: $rsp 16 +
STACK CFI 48f4 .cfa: $rbp 16 +
STACK CFI INIT 4910 42 .cfa: $rsp 8 + .ra: .cfa -8 + ^
STACK CFI 4911 $rbp: .cfa -16 + ^ .cfa: $rsp 16 +
STACK CFI 4914 .cfa: $rbp 16 +
STACK CFI INIT 4960 54 .cfa: $rsp 8 + .ra: .cfa -8 + ^
STACK CFI 4961 $rbp: .cfa -16 + ^ .cfa: $rsp 16 +
STACK CFI 4964 .cfa: $rbp 16 +
STACK CFI INIT 49c0 44 .cfa: $rsp 8 + .ra: .cfa -8 + ^
STACK CFI 49c1 $rbp: .cfa -16 + ^ .cfa: $rsp 16 +
STACK CFI 49c4 .cfa: $rbp 16 +
STACK CFI INIT 4a10 2e .cfa: $rsp 8 + .ra: .cfa -8 + ^
STACK CFI 4a11 $rbp: .cfa -16 + ^ .cfa: $rsp 16 +
STACK CFI 4a14 .cfa: $rbp 16 +
STACK CFI INIT 4a40 11 .cfa: $rsp 8 + .ra: .cfa -8 + ^
STACK CFI 4a41 $rbp: .cfa -16 + ^ .cfa: $rsp 16 +
STACK CFI 4a44 .cfa: $rbp 16 +
STACK CFI INIT 4a60 1f .cfa: $rsp 8 + .ra: .cfa -8 + ^
STACK CFI 4a61 $rbp: .cfa -16 + ^ .cfa: $rsp 16 +
STACK CFI 4a64 .cfa: $rbp 16 +
STACK CFI INIT 4a80 1f .cfa: $rsp 8 + .ra: .cfa -8 + ^
STACK CFI 4a81 $rbp: .cfa -16 + ^ .cfa: $rsp 16 +
STACK CFI 4a84 .cfa: $rbp 16 +
STACK CFI INIT 4aa0 32 .cfa: $rsp 8 + .ra: .cfa -8 + ^
STACK CFI 4aa1 $rbp: .cfa -16 + ^ .cfa: $rsp 16 +
STACK CFI 4aa4 .cfa: $rbp 16 +
STACK CFI INIT 4ae0 1b .cfa: $rsp 8 + .ra: .cfa -8 + ^
STACK CFI 4ae1 $rbp: .cfa -16 + ^ .cfa: $rsp 16 +
STACK CFI 4ae4 .cfa: $rbp 16 +
STACK CFI INIT 4b00 11 .cfa: $rsp 8 + .ra: .cfa -8 + ^
STACK CFI 4b01 $rbp: .cfa -16 + ^ .cfa: $rsp 16 +
STACK CFI 4b04 .cfa: $rbp 16 +
STACK CFI INIT 4b20 36 .cfa: $rsp 8 + .ra: .cfa -8 + ^
STACK CFI 4b21 $rbp: .cfa -16 + ^ .cfa: $rsp 16 +
STACK CFI 4b24 .cfa: $rbp 16 +
STACK CFI INIT 4b60 26 .cfa: $rsp 8 + .ra: .cfa -8 + ^
STACK CFI 4b61 $rbp: .cfa -16 + ^ .cfa: $rsp 16 +
STACK CFI 4b64 .cfa: $rbp 16 +
STACK CFI INIT 4b90 1b .cfa: $rsp 8 + .ra: .cfa -8 + ^
STACK CFI 4b91 $rbp: .cfa -16 + ^ .cfa: $rsp 16 +
STACK CFI 4b94 .cfa: $rbp 16 +
STACK CFI INIT 4bb0 a .cfa: $rsp 8 + .ra: .cfa -8 + ^
STACK CFI 4bb1 $rbp: .cfa -16 + ^ .cfa: $rsp 16 +
STACK CFI 4bb4 .cfa: $rbp 16 +
STACK CFI INIT 4bc0 2b .cfa: $rsp 8 + .ra: .cfa -8 + ^
STACK CFI 4bc1 $rbp: .cfa -16 + ^ .cfa: $rsp 16 +
STACK CFI 4bc4 .cfa: $rbp 16 +
STACK CFI INIT 4bf0 24 .cfa: $rsp 8 + .ra: .cfa -8 + ^
STACK CFI 4bf1 $rbp: .cfa -16 + ^ .cfa: $rsp 16 +
STACK CFI 4bf4 .cfa: $rbp 16 +
STACK CFI INIT 4c20 23 .cfa: $rsp 8 + .ra: .cfa -8 + ^
STACK CFI 4c21 $rbp: .cfa -16 + ^ .cfa: $rsp 16 +
STACK CFI 4c24 .cfa: $rbp 16 +
STACK CFI INIT 4c50 1b .cfa: $rsp 8 + .ra: .cfa -8 + ^
STACK CFI 4c51 $rbp: .cfa -16 + ^ .cfa: $rsp 16 +
STACK CFI 4c54 .cfa: $rbp 16 +
STACK CFI INIT 4c70 2c .cfa: $rsp 8 + .ra: .cfa -8 + ^
STACK CFI 4c71 $rbp: .cfa -16 + ^ .cfa: $rsp 16 +
STACK CFI 4c74 .cfa: $rbp 16 +
STACK CFI INIT 4ca0 38 .cfa: $rsp 8 + .ra: .cfa -8 + ^
STACK CFI 4ca1 $rbp: .cfa -16 + ^ .cfa: $rsp 16 +
STACK CFI 4ca4 .cfa: $rbp 16 +
STACK CFI INIT 4ce0 17f .cfa: $rsp 8 + .ra: .cfa -8 + ^
STACK CFI 4ce1 $rbp: .cfa -16 + ^ .cfa: $rsp 16 +
STACK CFI 4ce4 .cfa: $rbp 16 +
STACK CFI INIT 4e60 1c .cfa: $rsp 8 + .ra: .cfa -8 + ^
STACK CFI 4e61 $rbp: .cfa -16 + ^ .cfa: $rsp 16 +
STACK CFI 4e64 .cfa: $rbp 16 +
STACK CFI INIT 4e80 4b .cfa: $rsp 8 + .ra: .cfa -8 + ^
STACK CFI 4e81 $rbp: .cfa -16 + ^ .cfa: $rsp 16 +
STACK CFI 4e84 .cfa: $rbp 16 +
STACK CFI INIT 4ed0 e .cfa: $rsp 8 + .ra: .cfa -8 + ^
STACK CFI 4ed1 $rbp: .cfa -16 + ^ .cfa: $rsp 16 +
STACK CFI 4ed4 .cfa: $rbp 16 +
STACK CFI INIT 4ee0 4f .cfa: $rsp 8 + .ra: .cfa -8 + ^
STACK CFI 4ee1 $rbp: .cfa -16 + ^ .cfa: $rsp 16 +
STACK CFI 4ee4 .cfa: $rbp 16 +
STACK CFI INIT 4f30 9d .cfa: $rsp 8 + .ra: .cfa -8 + ^
STACK CFI 4f31 $rbp: .cfa -16 + ^ .cfa: $rsp 16 +
STACK CFI 4f34 .cfa: $rbp 16 +
STACK CFI INIT 4fd0 15 .cfa: $rsp 8 + .ra: .cfa -8 + ^
STACK CFI 4fd1 $rbp: .cfa -16 + ^ .cfa: $rsp 16 +
STACK CFI 4fd4 .cfa: $rbp 16 +
STACK CFI INIT 4ff0 27 .cfa: $rsp 8 + .ra: .cfa -8 + ^
STACK CFI 4ff1 $rbp: .cfa -16 + ^ .cfa: $rsp 16 +
STACK CFI 4ff4 .cfa: $rbp 16 +
STACK CFI INIT 5020 19 .cfa: $rsp 8 + .ra: .cfa -8 + ^
STACK CFI 5021 $rbp: .cfa -16 + ^ .cfa: $rsp 16 +
STACK CFI 5024 .cfa: $rbp 16 +
STACK CFI INIT 5040 12 .cfa: $rsp 8 + .ra: .cfa -8 + ^
STACK CFI 5041 $rbp: .cfa -16 + ^ .cfa: $rsp 16 +
STACK CFI 5044 .cfa: $rbp 16 +
STACK CFI INIT 5060 1b .cfa: $rsp 8 + .ra: .cfa -8 + ^
STACK CFI 5061 $rbp: .cfa -16 + ^ .cfa: $rsp 16 +
STACK CFI 5064 .cfa: $rbp 16 +
STACK CFI INIT 5080 1f .cfa: $rsp 8 + .ra: .cfa -8 + ^
STACK CFI 5081 $rbp: .cfa -16 + ^ .cfa: $rsp 16 +
STACK CFI 5084 .cfa: $rbp 16 +
STACK CFI INIT 50a0 1b .cfa: $rsp 8 + .ra: .cfa -8 + ^
STACK CFI 50a1 $rbp: .cfa -16 + ^ .cfa: $rsp 16 +
STACK CFI 50a4 .cfa: $rbp 16 +
STACK CFI INIT 50c0 11 .cfa: $rsp 8 + .ra: .cfa -8 + ^
STACK CFI 50c1 $rbp: .cfa -16 + ^ .cfa: $rsp 16 +
STACK CFI 50c4 .cfa: $rbp 16 +
STACK CFI INIT 50e0 32 .cfa: $rsp 8 + .ra: .cfa -8 + ^
STACK CFI 50e1 $rbp: .cfa -16 + ^ .cfa: $rsp 16 +
STACK CFI 50e4 .cfa: $rbp 16 +
STACK CFI INIT 5120 a .cfa: $rsp 8 + .ra: .cfa -8 + ^
STACK CFI 5121 $rbp: .cfa -16 + ^ .cfa: $rsp 16 +
STACK CFI 5124 .cfa: $rbp 16 +
STACK CFI INIT 5130 47 .cfa: $rsp 8 + .ra: .cfa -8 + ^
STACK CFI 5131 $rbp: .cfa -16 + ^ .cfa: $rsp 16 +
STACK CFI 5134 .cfa: $rbp 16 +
STACK CFI INIT 5180 79 .cfa: $rsp 8 + .ra: .cfa -8 + ^
STACK CFI 5181 $rbp: .cfa -16 + ^ .cfa: $rsp 16 +
STACK CFI 5184 .cfa: $rbp 16 +
STACK CFI INIT 5200 e .cfa: $rsp 8 + .ra: .cfa -8 + ^
STACK CFI 5201 $rbp: .cfa -16 + ^ .cfa: $rsp 16 +
STACK CFI 5204 .cfa: $rbp 16 +
STACK CFI INIT 5210 e .cfa: $rsp 8 + .ra: .cfa -8 + ^
STACK CFI 5211 $rbp: .cfa -16 + ^ .cfa: $rsp 16 +
STACK CFI 5214 .cfa: $rbp 16 +
STACK CFI INIT 5220 e .cfa: $rsp 8 + .ra: .cfa -8 + ^
STACK CFI 5221 $rbp: .cfa -16 + ^ .cfa: $rsp 16 +
STACK CFI 5224 .cfa: $rbp 16 +
STACK CFI INIT 5230 371 .cfa: $rsp 8 + .ra: .cfa -8 + ^
STACK CFI 5231 $rbp: .cfa -16 + ^ .cfa: $rsp 16 +
STACK CFI 5234 .cfa: $rbp 16 +
STACK CFI INIT 55b0 de .cfa: $rsp 8 + .ra: .cfa -8 + ^
STACK CFI 55b1 $rbp: .cfa -16 + ^ .cfa: $rsp 16 +
STACK CFI 55b4 .cfa: $rbp 16 +
STACK CFI INIT 5690 2a .cfa: $rsp 8 + .ra: .cfa -8 + ^
STACK CFI 5691 $rbp: .cfa -16 + ^ .cfa: $rsp 16 +
STACK CFI 5694 .cfa: $rbp 16 +
STACK CFI INIT 56c0 e8 .cfa: $rsp 8 + .ra: .cfa -8 + ^
STACK CFI 56c1 $rbp: .cfa -16 + ^ .cfa: $rsp 16 +
STACK CFI 56c4 .cfa: $rbp 16 +
STACK CFI INIT 57b0 32 .cfa: $rsp 8 + .ra: .cfa -8 + ^
STACK CFI 57b1 $rbp: .cfa -16 + ^ .cfa: $rsp 16 +
STACK CFI 57b4 .cfa: $rbp 16 +
STACK CFI INIT 57f0 47 .cfa: $rsp 8 + .ra: .cfa -8 + ^
STACK CFI 57f1 $rbp: .cfa -16 + ^ .cfa: $rsp 16 +
STACK CFI 57f4 .cfa: $rbp 16 +
STACK CFI INIT 5840 14 .cfa: $rsp 8 + .ra: .cfa -8 + ^
STACK CFI 5841 $rbp: .cfa -16 + ^ .cfa: $rsp 16 +
STACK CFI 5844 .cfa: $rbp 16 +
STACK CFI INIT 5860 6d .cfa: $rsp 8 + .ra: .cfa -8 + ^
STACK CFI 5861 $rbp: .cfa -16 + ^ .cfa: $rsp 16 +
STACK CFI 5864 .cfa: $rbp 16 +
STACK CFI INIT 58d0 66 .cfa: $rsp 8 + .ra: .cfa -8 + ^
STACK CFI 58d1 $rbp: .cfa -16 + ^ .cfa: $rsp 16 +
STACK CFI 58d4 .cfa: $rbp 16 +
STACK CFI INIT 5940 2e .cfa: $rsp 8 + .ra: .cfa -8 + ^
STACK CFI 5941 $rbp: .cfa -16 + ^ .cfa: $rsp 16 +
STACK CFI 5944 .cfa: $rbp 16 +
STACK CFI INIT 5970 1f .cfa: $rsp 8 + .ra: .cfa -8 + ^
STACK CFI 5971 $rbp: .cfa -16 + ^ .cfa: $rsp 16 +
STACK CFI 5974 .cfa: $rbp 16 +
STACK CFI INIT 5990 50 .cfa: $rsp 8 + .ra: .cfa -8 + ^
STACK CFI 5991 $rbp: .cfa -16 + ^ .cfa: $rsp 16 +
STACK CFI 5994 .cfa: $rbp 16 +
STACK CFI INIT 59e0 e .cfa: $rsp 8 + .ra: .cfa -8 + ^
STACK CFI 59e1 $rbp: .cfa -16 + ^ .cfa: $rsp 16 +
STACK CFI 59e4 .cfa: $rbp 16 +
STACK CFI INIT 59f0 1b .cfa: $rsp 8 + .ra: .cfa -8 + ^
STACK CFI 59f1 $rbp: .cfa -16 + ^ .cfa: $rsp 16 +
STACK CFI 59f4 .cfa: $rbp 16 +
STACK CFI INIT 5a10 2e .cfa: $rsp 8 + .ra: .cfa -8 + ^
STACK CFI 5a11 $rbp: .cfa -16 + ^ .cfa: $rsp 16 +
STACK CFI 5a14 .cfa: $rbp 16 +
STACK CFI INIT 5a40 11 .cfa: $rsp 8 + .ra: .cfa -8 + ^
STACK CFI 5a41 $rbp: .cfa -16 + ^ .cfa: $rsp 16 +
STACK CFI 5a44 .cfa: $rbp 16 +
STACK CFI INIT 5a60 e .cfa: $rsp 8 + .ra: .cfa -8 + ^
STACK CFI 5a61 $rbp: .cfa -16 + ^ .cfa: $rsp 16 +
STACK CFI 5a64 .cfa: $rbp 16 +
STACK CFI INIT 5a70 4f .cfa: $rsp 8 + .ra: .cfa -8 + ^
STACK CFI 5a71 $rbp: .cfa -16 + ^ .cfa: $rsp 16 +
STACK CFI 5a74 .cfa: $rbp 16 +
STACK CFI INIT 5ac0 1b .cfa: $rsp 8 + .ra: .cfa -8 + ^
STACK CFI 5ac1 $rbp: .cfa -16 + ^ .cfa: $rsp 16 +
STACK CFI 5ac4 .cfa: $rbp 16 +
STACK CFI INIT 5ae0 1b .cfa: $rsp 8 + .ra: .cfa -8 + ^
STACK CFI 5ae1 $rbp: .cfa -16 + ^ .cfa: $rsp 16 +
STACK CFI 5ae4 .cfa: $rbp 16 +
STACK CFI INIT 5b00 29 .cfa: $rsp 8 + .ra: .cfa -8 + ^
STACK CFI 5b01 $rbp: .cfa -16 + ^ .cfa: $rsp 16 +
STACK CFI 5b04 .cfa: $rbp 16 +
STACK CFI INIT 5b30 12 .cfa: $rsp 8 + .ra: .cfa -8 + ^
STACK CFI 5b31 $rbp: .cfa -16 + ^ .cfa: $rsp 16 +
STACK CFI 5b34 .cfa: $rbp 16 +
STACK CFI INIT 5b50 27 .cfa: $rsp 8 + .ra: .cfa -8 + ^
STACK CFI 5b51 $rbp: .cfa -16 + ^ .cfa: $rsp 16 +
STACK CFI 5b54 .cfa: $rbp 16 +
STACK CFI INIT 5b80 19 .cfa: $rsp 8 + .ra: .cfa -8 + ^
STACK CFI 5b81 $rbp: .cfa -16 + ^ .cfa: $rsp 16 +
STACK CFI 5b84 .cfa: $rbp 16 +
STACK CFI INIT 5ba0 40 .cfa: $rsp 8 + .ra: .cfa -8 + ^
STACK CFI 5ba1 $rbp: .cfa -16 + ^ .cfa: $rsp 16 +
STACK CFI 5ba4 .cfa: $rbp 16 +
STACK CFI INIT 5be0 189 .cfa: $rsp 8 + .ra: .cfa -8 + ^
STACK CFI 5be1 $rbp: .cfa -16 + ^ .cfa: $rsp 16 +
STACK CFI 5be4 .cfa: $rbp 16 +
STACK CFI INIT 5d70 19 .cfa: $rsp 8 + .ra: .cfa -8 + ^
STACK CFI 5d71 $rbp: .cfa -16 + ^ .cfa: $rsp 16 +
STACK CFI 5d74 .cfa: $rbp 16 +
STACK CFI INIT 5d90 49 .cfa: $rsp 8 + .ra: .cfa -8 + ^
STACK CFI 5d91 $rbp: .cfa -16 + ^ .cfa: $rsp 16 +
STACK CFI 5d94 .cfa: $rbp 16 +
STACK CFI INIT 5de0 2f .cfa: $rsp 8 + .ra: .cfa -8 + ^
STACK CFI 5de1 $rbp: .cfa -16 + ^ .cfa: $rsp 16 +
STACK CFI 5de4 .cfa: $rbp 16 +
STACK CFI INIT 5e10 2f .cfa: $rsp 8 + .ra: .cfa -8 + ^
STACK CFI 5e11 $rbp: .cfa -16 + ^ .cfa: $rsp 16 +
STACK CFI 5e14 .cfa: $rbp 16 +
STACK CFI INIT 5e40 40 .cfa: $rsp 8 + .ra: .cfa -8 + ^
STACK CFI 5e41 $rbp: .cfa -16 + ^ .cfa: $rsp 16 +
STACK CFI 5e44 .cfa: $rbp 16 +
STACK CFI INIT 5e80 1b .cfa: $rsp 8 + .ra: .cfa -8 + ^
STACK CFI 5e81 $rbp: .cfa -16 + ^ .cfa: $rsp 16 +
STACK CFI 5e84 .cfa: $rbp 16 +
STACK CFI INIT 5ea0 e .cfa: $rsp 8 + .ra: .cfa -8 + ^
STACK CFI 5ea1 $rbp: .cfa -16 + ^ .cfa: $rsp 16 +
STACK CFI 5ea4 .cfa: $rbp 16 +
STACK CFI INIT 5eb0 2a .cfa: $rsp 8 + .ra: .cfa -8 + ^
STACK CFI 5eb1 $rbp: .cfa -16 + ^ .cfa: $rsp 16 +
STACK CFI 5eb4 .cfa: $rbp 16 +
STACK CFI INIT 5ee0 49 .cfa: $rsp 8 + .ra: .cfa -8 + ^
STACK CFI 5ee1 $rbp: .cfa -16 + ^ .cfa: $rsp 16 +
STACK CFI 5ee4 .cfa: $rbp 16 +
STACK CFI INIT 5f30 e .cfa: $rsp 8 + .ra: .cfa -8 + ^
STACK CFI 5f31 $rbp: .cfa -16 + ^ .cfa: $rsp 16 +
STACK CFI 5f34 .cfa: $rbp 16 +
STACK CFI INIT 5f40 33 .cfa: $rsp 8 + .ra: .cfa -8 + ^
STACK CFI 5f41 $rbp: .cfa -16 + ^ .cfa: $rsp 16 +
STACK CFI 5f44 .cfa: $rbp 16 +
STACK CFI INIT 5f80 33 .cfa: $rsp 8 + .ra: .cfa -8 + ^
STACK CFI 5f81 $rbp: .cfa -16 + ^ .cfa: $rsp 16 +
STACK CFI 5f84 .cfa: $rbp 16 +
STACK CFI INIT 5fc0 1b .cfa: $rsp 8 + .ra: .cfa -8 + ^
STACK CFI 5fc1 $rbp: .cfa -16 + ^ .cfa: $rsp 16 +
STACK CFI 5fc4 .cfa: $rbp 16 +
STACK CFI INIT 5fe0 40 .cfa: $rsp 8 + .ra: .cfa -8 + ^
STACK CFI 5fe1 $rbp: .cfa -16 + ^ .cfa: $rsp 16 +
STACK CFI 5fe4 .cfa: $rbp 16 +
STACK CFI INIT 6020 1b .cfa: $rsp 8 + .ra: .cfa -8 + ^
STACK CFI 6021 $rbp: .cfa -16 + ^ .cfa: $rsp 16 +
STACK CFI 6024 .cfa: $rbp 16 +
STACK CFI INIT 6040 a .cfa: $rsp 8 + .ra: .cfa -8 + ^
STACK CFI 6041 $rbp: .cfa -16 + ^ .cfa: $rsp 16 +
STACK CFI 6044 .cfa: $rbp 16 +
STACK CFI INIT 6050 27 .cfa: $rsp 8 + .ra: .cfa -8 + ^
STACK CFI 6051 $rbp: .cfa -16 + ^ .cfa: $rsp 16 +
STACK CFI 6054 .cfa: $rbp 16 +
STACK CFI INIT 6080 11 .cfa: $rsp 8 + .ra: .cfa -8 + ^
STACK CFI 6081 $rbp: .cfa -16 + ^ .cfa: $rsp 16 +
STACK CFI 6084 .cfa: $rbp 16 +
STACK CFI INIT 60a0 5c .cfa: $rsp 8 + .ra: .cfa -8 + ^
STACK CFI 60a1 $rbp: .cfa -16 + ^ .cfa: $rsp 16 +
STACK CFI 60a4 .cfa: $rbp 16 +
STACK CFI INIT 6100 23 .cfa: $rsp 8 + .ra: .cfa -8 + ^
STACK CFI 6101 $rbp: .cfa -16 + ^ .cfa: $rsp 16 +
STACK CFI 6104 .cfa: $rbp 16 +
STACK CFI INIT 6130 46 .cfa: $rsp 8 + .ra: .cfa -8 + ^
STACK CFI 6131 $rbp: .cfa -16 + ^ .cfa: $rsp 16 +
STACK CFI 6134 .cfa: $rbp 16 +
STACK CFI INIT 6180 1b .cfa: $rsp 8 + .ra: .cfa -8 + ^
STACK CFI 6181 $rbp: .cfa -16 + ^ .cfa: $rsp 16 +
STACK CFI 6184 .cfa: $rbp 16 +
STACK CFI INIT 61a0 e .cfa: $rsp 8 + .ra: .cfa -8 + ^
STACK CFI 61a1 $rbp: .cfa -16 + ^ .cfa: $rsp 16 +
STACK CFI 61a4 .cfa: $rbp 16 +
STACK CFI INIT 61b0 41 .cfa: $rsp 8 + .ra: .cfa -8 + ^
STACK CFI 61b1 $rbp: .cfa -16 + ^ .cfa: $rsp 16 +
STACK CFI 61b4 .cfa: $rbp 16 +
STACK CFI INIT 6200 1b .cfa: $rsp 8 + .ra: .cfa -8 + ^
STACK CFI 6201 $rbp: .cfa -16 + ^ .cfa: $rsp 16 +
STACK CFI 6204 .cfa: $rbp 16 +
STACK CFI INIT 6220 36 .cfa: $rsp 8 + .ra: .cfa -8 + ^
STACK CFI 6221 $rbp: .cfa -16 + ^ .cfa: $rsp 16 +
STACK CFI 6224 .cfa: $rbp 16 +
STACK CFI INIT 6260 26 .cfa: $rsp 8 + .ra: .cfa -8 + ^
STACK CFI 6261 $rbp: .cfa -16 + ^ .cfa: $rsp 16 +
STACK CFI 6264 .cfa: $rbp 16 +
STACK CFI INIT 6290 1b .cfa: $rsp 8 + .ra: .cfa -8 + ^
STACK CFI 6291 $rbp: .cfa -16 + ^ .cfa: $rsp 16 +
STACK CFI 6294 .cfa: $rbp 16 +
STACK CFI INIT 62b0 a .cfa: $rsp 8 + .ra: .cfa -8 + ^
STACK CFI 62b1 $rbp: .cfa -16 + ^ .cfa: $rsp 16 +
STACK CFI 62b4 .cfa: $rbp 16 +
STACK CFI INIT 62c0 94 .cfa: $rsp 8 + .ra: .cfa -8 + ^
STACK CFI 62c1 $rbp: .cfa -16 + ^ .cfa: $rsp 16 +
STACK CFI 62c4 .cfa: $rbp 16 +
STACK CFI INIT 6360 43 .cfa: $rsp 8 + .ra: .cfa -8 + ^
STACK CFI 6361 $rbp: .cfa -16 + ^ .cfa: $rsp 16 +
STACK CFI 6364 .cfa: $rbp 16 +
STACK CFI INIT 63b0 30a .cfa: $rsp 8 + .ra: .cfa -8 + ^
STACK CFI 63b1 $rbp: .cfa -16 + ^ .cfa: $rsp 16 +
STACK CFI 63b4 .cfa: $rbp 16 +
STACK CFI INIT 66c0 32 .cfa: $rsp 8 + .ra: .cfa -8 + ^
STACK CFI 66c1 $rbp: .cfa -16 + ^ .cfa: $rsp 16 +
STACK CFI 66c4 .cfa: $rbp 16 +
STACK CFI INIT 6700 37 .cfa: $rsp 8 + .ra: .cfa -8 + ^
STACK CFI 6701 $rbp: .cfa -16 + ^ .cfa: $rsp 16 +
STACK CFI 6704 .cfa: $rbp 16 +
STACK CFI INIT 6740 dd .cfa: $rsp 8 + .ra: .cfa -8 + ^
STACK CFI 6741 $rbp: .cfa -16 + ^ .cfa: $rsp 16 +
STACK CFI 6744 .cfa: $rbp 16 +
STACK CFI INIT 6820 40 .cfa: $rsp 8 + .ra: .cfa -8 + ^
STACK CFI 6821 $rbp: .cfa -16 + ^ .cfa: $rsp 16 +
STACK CFI 6824 .cfa: $rbp 16 +
STACK CFI INIT 6860 2e .cfa: $rsp 8 + .ra: .cfa -8 + ^
STACK CFI 6861 $rbp: .cfa -16 + ^ .cfa: $rsp 16 +
STACK CFI 6864 .cfa: $rbp 16 +
STACK CFI INIT 6890 53 .cfa: $rsp 8 + .ra: .cfa -8 + ^
STACK CFI 6891 $rbp: .cfa -16 + ^ .cfa: $rsp 16 +
STACK CFI 6894 .cfa: $rbp 16 +
STACK CFI INIT 68f0 4d .cfa: $rsp 8 + .ra: .cfa -8 + ^
STACK CFI 68f1 $rbp: .cfa -16 + ^ .cfa: $rsp 16 +
STACK CFI 68f4 .cfa: $rbp 16 +
STACK CFI INIT 6940 e .cfa: $rsp 8 + .ra: .cfa -8 + ^
STACK CFI 6941 $rbp: .cfa -16 + ^ .cfa: $rsp 16 +
STACK CFI 6944 .cfa: $rbp 16 +
STACK CFI INIT 6950 2e .cfa: $rsp 8 + .ra: .cfa -8 + ^
STACK CFI 6951 $rbp: .cfa -16 + ^ .cfa: $rsp 16 +
STACK CFI 6954 .cfa: $rbp 16 +
STACK CFI INIT 6980 23 .cfa: $rsp 8 + .ra: .cfa -8 + ^
STACK CFI 6981 $rbp: .cfa -16 + ^ .cfa: $rsp 16 +
STACK CFI 6984 .cfa: $rbp 16 +
STACK CFI INIT 69b0 1c .cfa: $rsp 8 + .ra: .cfa -8 + ^
STACK CFI 69b1 $rbp: .cfa -16 + ^ .cfa: $rsp 16 +
STACK CFI 69b4 .cfa: $rbp 16 +
STACK CFI INIT 69d0 3b .cfa: $rsp 8 + .ra: .cfa -8 + ^
STACK CFI 69d1 $rbp: .cfa -16 + ^ .cfa: $rsp 16 +
STACK CFI 69d4 .cfa: $rbp 16 +
STACK CFI INIT 6a10 1b .cfa: $rsp 8 + .ra: .cfa -8 + ^
STACK CFI 6a11 $rbp: .cfa -16 + ^ .cfa: $rsp 16 +
STACK CFI 6a14 .cfa: $rbp 16 +
STACK CFI INIT 6a30 11 .cfa: $rsp 8 + .ra: .cfa -8 + ^
STACK CFI 6a31 $rbp: .cfa -16 + ^ .cfa: $rsp 16 +
STACK CFI 6a34 .cfa: $rbp 16 +
STACK CFI INIT 6a50 14 .cfa: $rsp 8 + .ra: .cfa -8 + ^
STACK CFI 6a51 $rbp: .cfa -16 + ^ .cfa: $rsp 16 +
STACK CFI 6a54 .cfa: $rbp 16 +
STACK CFI INIT 6a70 1c .cfa: $rsp 8 + .ra: .cfa -8 + ^
STACK CFI 6a71 $rbp: .cfa -16 + ^ .cfa: $rsp 16 +
STACK CFI 6a74 .cfa: $rbp 16 +
STACK CFI INIT 6a90 32 .cfa: $rsp 8 + .ra: .cfa -8 + ^
STACK CFI 6a91 $rbp: .cfa -16 + ^ .cfa: $rsp 16 +
STACK CFI 6a94 .cfa: $rbp 16 +
STACK CFI INIT 6ad0 4d .cfa: $rsp 8 + .ra: .cfa -8 + ^
STACK CFI 6ad1 $rbp: .cfa -16 + ^ .cfa: $rsp 16 +
STACK CFI 6ad4 .cfa: $rbp 16 +
STACK CFI INIT 6b20 3f .cfa: $rsp 8 + .ra: .cfa -8 + ^
STACK CFI 6b21 $rbp: .cfa -16 + ^ .cfa: $rsp 16 +
STACK CFI 6b24 .cfa: $rbp 16 +
STACK CFI INIT 6b60 26 .cfa: $rsp 8 + .ra: .cfa -8 + ^
STACK CFI 6b61 $rbp: .cfa -16 + ^ .cfa: $rsp 16 +
STACK CFI 6b64 .cfa: $rbp 16 +
STACK CFI INIT 6b90 3f .cfa: $rsp 8 + .ra: .cfa -8 + ^
STACK CFI 6b91 $rbp: .cfa -16 + ^ .cfa: $rsp 16 +
STACK CFI 6b94 .cfa: $rbp 16 +
STACK CFI INIT 6bd0 104 .cfa: $rsp 8 + .ra: .cfa -8 + ^
STACK CFI 6bd1 $rbp: .cfa -16 + ^ .cfa: $rsp 16 +
STACK CFI 6bd4 .cfa: $rbp 16 +
STACK CFI INIT 6ce0 2a .cfa: $rsp 8 + .ra: .cfa -8 + ^
STACK CFI 6ce1 $rbp: .cfa -16 + ^ .cfa: $rsp 16 +
STACK CFI 6ce4 .cfa: $rbp 16 +
STACK CFI INIT 6d10 33 .cfa: $rsp 8 + .ra: .cfa -8 + ^
STACK CFI 6d11 $rbp: .cfa -16 + ^ .cfa: $rsp 16 +
STACK CFI 6d14 .cfa: $rbp 16 +
STACK CFI INIT 6d50 11 .cfa: $rsp 8 + .ra: .cfa -8 + ^
STACK CFI 6d51 $rbp: .cfa -16 + ^ .cfa: $rsp 16 +
STACK CFI 6d54 .cfa: $rbp 16 +
STACK CFI INIT 6d70 1b .cfa: $rsp 8 + .ra: .cfa -8 + ^
STACK CFI 6d71 $rbp: .cfa -16 + ^ .cfa: $rsp 16 +
STACK CFI 6d74 .cfa: $rbp 16 +
STACK CFI INIT 6d90 3c .cfa: $rsp 8 + .ra: .cfa -8 + ^
STACK CFI 6d91 $rbp: .cfa -16 + ^ .cfa: $rsp 16 +
STACK CFI 6d94 .cfa: $rbp 16 +
STACK CFI INIT 6dd0 11 .cfa: $rsp 8 + .ra: .cfa -8 + ^
STACK CFI 6dd1 $rbp: .cfa -16 + ^ .cfa: $rsp 16 +
STACK CFI 6dd4 .cfa: $rbp 16 +
STACK CFI INIT 6df0 19 .cfa: $rsp 8 + .ra: .cfa -8 + ^
STACK CFI 6df1 $rbp: .cfa -16 + ^ .cfa: $rsp 16 +
STACK CFI 6df4 .cfa: $rbp 16 +
STACK CFI INIT 6e10 1f .cfa: $rsp 8 + .ra: .cfa -8 + ^
STACK CFI 6e11 $rbp: .cfa -16 + ^ .cfa: $rsp 16 +
STACK CFI 6e14 .cfa: $rbp 16 +
STACK CFI INIT 6e30 1b .cfa: $rsp 8 + .ra: .cfa -8 + ^
STACK CFI 6e31 $rbp: .cfa -16 + ^ .cfa: $rsp 16 +
STACK CFI 6e34 .cfa: $rbp 16 +
STACK CFI INIT 6e50 35 .cfa: $rsp 8 + .ra: .cfa -8 + ^
STACK CFI 6e51 $rbp: .cfa -16 + ^ .cfa: $rsp 16 +
STACK CFI 6e54 .cfa: $rbp 16 +
STACK CFI INIT 6e90 35 .cfa: $rsp 8 + .ra: .cfa -8 + ^
STACK CFI 6e91 $rbp: .cfa -16 + ^ .cfa: $rsp 16 +
STACK CFI 6e94 .cfa: $rbp 16 +
STACK CFI INIT 6ed0 1b .cfa: $rsp 8 + .ra: .cfa -8 + ^
STACK CFI 6ed1 $rbp: .cfa -16 + ^ .cfa: $rsp 16 +
STACK CFI 6ed4 .cfa: $rbp 16 +
STACK CFI INIT 6ef0 1b .cfa: $rsp 8 + .ra: .cfa -8 + ^
STACK CFI 6ef1 $rbp: .cfa -16 + ^ .cfa: $rsp 16 +
STACK CFI 6ef4 .cfa: $rbp 16 +
STACK CFI INIT 6f10 1b .cfa: $rsp 8 + .ra: .cfa -8 + ^
STACK CFI 6f11 $rbp: .cfa -16 + ^ .cfa: $rsp 16 +
STACK CFI 6f14 .cfa: $rbp 16 +
STACK CFI INIT 6f30 e .cfa: $rsp 8 + .ra: .cfa -8 + ^
STACK CFI 6f31 $rbp: .cfa -16 + ^ .cfa: $rsp 16 +
STACK CFI 6f34 .cfa: $rbp 16 +
STACK CFI INIT 6f40 1b .cfa: $rsp 8 + .ra: .cfa -8 + ^
STACK CFI 6f41 $rbp: .cfa -16 + ^ .cfa: $rsp 16 +
STACK CFI 6f44 .cfa: $rbp 16 +
STACK CFI INIT 6f60 1b .cfa: $rsp 8 + .ra: .cfa -8 + ^
STACK CFI 6f61 $rbp: .cfa -16 + ^ .cfa: $rsp 16 +
STACK CFI 6f64 .cfa: $rbp 16 +
STACK CFI INIT 6f80 1b .cfa: $rsp 8 + .ra: .cfa -8 + ^
STACK CFI 6f81 $rbp: .cfa -16 + ^ .cfa: $rsp 16 +
STACK CFI 6f84 .cfa: $rbp 16 +
STACK CFI INIT 6fa0 1b .cfa: $rsp 8 + .ra: .cfa -8 + ^
STACK CFI 6fa1 $rbp: .cfa -16 + ^ .cfa: $rsp 16 +
STACK CFI 6fa4 .cfa: $rbp 16 +
STACK CFI INIT 6fc0 11 .cfa: $rsp 8 + .ra: .cfa -8 + ^
STACK CFI 6fc1 $rbp: .cfa -16 + ^ .cfa: $rsp 16 +
STACK CFI 6fc4 .cfa: $rbp 16 +
STACK CFI INIT 6fe0 27 .cfa: $rsp 8 + .ra: .cfa -8 + ^
STACK CFI 6fe1 $rbp: .cfa -16 + ^ .cfa: $rsp 16 +
STACK CFI 6fe4 .cfa: $rbp 16 +
STACK CFI INIT 7010 35 .cfa: $rsp 8 + .ra: .cfa -8 + ^
STACK CFI 7011 $rbp: .cfa -16 + ^ .cfa: $rsp 16 +
STACK CFI 7014 .cfa: $rbp 16 +
STACK CFI INIT 7050 1e .cfa: $rsp 8 + .ra: .cfa -8 + ^
STACK CFI 7051 $rbp: .cfa -16 + ^ .cfa: $rsp 16 +
STACK CFI 7054 .cfa: $rbp 16 +
STACK CFI INIT 7070 1b .cfa: $rsp 8 + .ra: .cfa -8 + ^
STACK CFI 7071 $rbp: .cfa -16 + ^ .cfa: $rsp 16 +
STACK CFI 7074 .cfa: $rbp 16 +
STACK CFI INIT 7090 1b .cfa: $rsp 8 + .ra: .cfa -8 + ^
STACK CFI 7091 $rbp: .cfa -16 + ^ .cfa: $rsp 16 +
STACK CFI 7094 .cfa: $rbp 16 +
STACK CFI INIT 70b0 1b .cfa: $rsp 8 + .ra: .cfa -8 + ^
STACK CFI 70b1 $rbp: .cfa -16 + ^ .cfa: $rsp 16 +
STACK CFI 70b4 .cfa: $rbp 16 +
STACK CFI INIT 70d0 e .cfa: $rsp 8 + .ra: .cfa -8 + ^
STACK CFI 70d1 $rbp: .cfa -16 + ^ .cfa: $rsp 16 +
STACK CFI 70d4 .cfa: $rbp 16 +
STACK CFI INIT 70e0 43 .cfa: $rsp 8 + .ra: .cfa -8 + ^
STACK CFI 70e1 .cfa: $rsp 16 +
STACK CFI 70e5 $rbx: .cfa -16 + ^ .cfa: $rsp 32 +
STACK CFI INIT 7130 3a .cfa: $rsp 8 + .ra: .cfa -8 + ^
STACK CFI 7131 .cfa: $rsp 16 +
STACK CFI 7135 $rbx: .cfa -16 + ^ .cfa: $rsp 32 +
STACK CFI INIT 7170 2d .cfa: $rsp 8 + .ra: .cfa -8 + ^
STACK CFI 7171 .cfa: $rsp 16 +
STACK CFI INIT 71a0 96 .cfa: $rsp 8 + .ra: .cfa -8 + ^
STACK CFI 71a1 .cfa: $rsp 16 +
STACK CFI 71a2 .cfa: $rsp 24 +
STACK CFI 71a6 $rbp: .cfa -16 + ^ $rbx: .cfa -24 + ^ .cfa: $rsp 80 +
STACK CFI INIT 7240 133 .cfa: $rsp 8 + .ra: .cfa -8 + ^
STACK CFI 7241 .cfa: $rsp 16 +
STACK CFI 7243 .cfa: $rsp 24 +
STACK CFI 7245 .cfa: $rsp 32 +
STACK CFI 7246 .cfa: $rsp 40 +
STACK CFI 7247 $r14: .cfa -32 + ^ $r15: .cfa -24 + ^ $rbp: .cfa -16 + ^ $rbx: .cfa -40 + ^ .cfa: $rsp 48 +
STACK CFI INIT 7380 76 .cfa: $rsp 8 + .ra: .cfa -8 + ^
STACK CFI 7381 .cfa: $rsp 16 +
STACK CFI 7385 $rbx: .cfa -16 + ^ .cfa: $rsp 64 +
STACK CFI INIT 7400 a3 .cfa: $rsp 8 + .ra: .cfa -8 + ^
STACK CFI 7401 .cfa: $rsp 16 +
STACK CFI 7403 .cfa: $rsp 24 +
STACK CFI 7405 .cfa: $rsp 32 +
STACK CFI 7406 .cfa: $rsp 40 +
STACK CFI 7407 $r14: .cfa -32 + ^ $r15: .cfa -24 + ^ $rbp: .cfa -16 + ^ $rbx: .cfa -40 + ^ .cfa: $rsp 48 +
STACK CFI INIT 74b0 76 .cfa: $rsp 8 + .ra: .cfa -8 + ^
STACK CFI 74b1 .cfa: $rsp 16 +
STACK CFI 74b5 $rbx: .cfa -16 + ^ .cfa: $rsp 64 +
STACK CFI INIT 7530 eb .cfa: $rsp 8 + .ra: .cfa -8 + ^
STACK CFI 7531 .cfa: $rsp 16 +
STACK CFI 7533 .cfa: $rsp 24 +
STACK CFI 7534 .cfa: $rsp 32 +
STACK CFI 7538 $r14: .cfa -24 + ^ $rbp: .cfa -16 + ^ $rbx: .cfa -32 + ^ .cfa: $rsp 96 +
STACK CFI INIT 7620 72 .cfa: $rsp 8 + .ra: .cfa -8 + ^
STACK CFI 7621 .cfa: $rsp 16 +
STACK CFI 7622 .cfa: $rsp 24 +
STACK CFI 7623 $rbp: .cfa -16 + ^ $rbx: .cfa -24 + ^ .cfa: $rsp 32 +
STACK CFI INIT 76a0 76 .cfa: $rsp 8 + .ra: .cfa -8 + ^
STACK CFI 76a1 .cfa: $rsp 16 +
STACK CFI 76a5 $rbx: .cfa -16 + ^ .cfa: $rsp 64 +
STACK CFI INIT 7720 d5 .cfa: $rsp 8 + .ra: .cfa -8 + ^
STACK CFI 7722 .cfa: $rsp 16 +
STACK CFI 7723 .cfa: $rsp 24 +
STACK CFI 7727 $r14: .cfa -16 + ^ $rbx: .cfa -24 + ^ .cfa: $rsp 80 +
STACK CFI INIT 7800 77 .cfa: $rsp 8 + .ra: .cfa -8 + ^
STACK CFI 7801 .cfa: $rsp 16 +
STACK CFI 7803 .cfa: $rsp 24 +
STACK CFI 7804 .cfa: $rsp 32 +
STACK CFI 7808 $r14: .cfa -24 + ^ $rbp: .cfa -16 + ^ $rbx: .cfa -32 + ^ .cfa: $rsp 48 +
STACK CFI INIT 7880 7c .cfa: $rsp 8 + .ra: .cfa -8 + ^
STACK CFI 7881 .cfa: $rsp 16 +
STACK CFI 7883 .cfa: $rsp 24 +
STACK CFI 7884 .cfa: $rsp 32 +
STACK CFI 7888 $r14: .cfa -24 + ^ $rbp: .cfa -16 + ^ $rbx: .cfa -32 + ^ .cfa: $rsp 48 +
STACK CFI INIT 7900 9c .cfa: $rsp 8 + .ra: .cfa -8 + ^
STACK CFI 7901 .cfa: $rsp 16 +
STACK CFI 7903 .cfa: $rsp 24 +
STACK CFI 7904 .cfa: $rsp 32 +
STACK CFI 7908 $r14: .cfa -24 + ^ $rbp: .cfa -16 + ^ $rbx: .cfa -32 + ^ .cfa: $rsp 48 +
STACK CFI INIT 79a0 12f .cfa: $rsp 8 + .ra: .cfa -8 + ^
STACK CFI 79a1 .cfa: $rsp 16 +
STACK CFI 79a3 .cfa: $rsp 24 +
STACK CFI 79a5 .cfa: $rsp 32 +
STACK CFI 79a6 .cfa: $rsp 40 +
STACK CFI 79ad $r14: .cfa -32 + ^ $r15: .cfa -24 + ^ $rbp: .cfa -16 + ^ $rbx: .cfa -40 + ^ .cfa: $rsp 448 +
STACK CFI INIT 7ad0 1a2 .cfa: $rsp 8 + .ra: .cfa -8 + ^
STACK CFI 7ad1 .cfa: $rsp 16 +
STACK CFI 7ad3 .cfa: $rsp 24 +
STACK CFI 7ad5 .cfa: $rsp 32 +
STACK CFI 7ad6 .cfa: $rsp 40 +
STACK CFI 7add $r14: .cfa -32 + ^ $r15: .cfa -24 + ^ $rbp: .cfa -16 + ^ $rbx: .cfa -40 + ^ .cfa: $rsp 448 +
STACK CFI INIT 7c80 b2 .cfa: $rsp 8 + .ra: .cfa -8 + ^
STACK CFI 7c81 .cfa: $rsp 16 +
STACK CFI 7c82 .cfa: $rsp 24 +
STACK CFI 7c86 $rbp: .cfa -16 + ^ $rbx: .cfa -24 + ^ .cfa: $rsp 80 +
STACK CFI INIT 7d40 47 .cfa: $rsp 8 + .ra: .cfa -8 + ^
STACK CFI 7d41 .cfa: $rsp 16 +
STACK CFI INIT 7d90 2d .cfa: $rsp 8 + .ra: .cfa -8 + ^
STACK CFI 7d91 .cfa: $rsp 16 +
STACK CFI INIT 7dc0 453 .cfa: $rsp 8 + .ra: .cfa -8 + ^
STACK CFI 7dc1 .cfa: $rsp 16 +
STACK CFI 7dc3 .cfa: $rsp 24 +
STACK CFI 7dc5 .cfa: $rsp 32 +
STACK CFI 7dc7 .cfa: $rsp 40 +
STACK CFI 7dc9 .cfa: $rsp 48 +
STACK CFI 7dca .cfa: $rsp 56 +
STACK CFI 7dd1 $r12: .cfa -48 + ^ $r13: .cfa -40 + ^ $r14: .cfa -32 + ^ $r15: .cfa -24 + ^ $rbp: .cfa -16 + ^ $rbx: .cfa -56 + ^ .cfa: $rsp 192 +
STACK CFI INIT 8220 171 .cfa: $rsp 8 + .ra: .cfa -8 + ^
STACK CFI 8221 .cfa: $rsp 16 +
STACK CFI 8223 .cfa: $rsp 24 +
STACK CFI 8225 .cfa: $rsp 32 +
STACK CFI 8227 .cfa: $rsp 40 +
STACK CFI 8229 .cfa: $rsp 48 +
STACK CFI 822a .cfa: $rsp 56 +
STACK CFI 8231 $r12: .cfa -48 + ^ $r13: .cfa -40 + ^ $r14: .cfa -32 + ^ $r15: .cfa -24 + ^ $rbp: .cfa -16 + ^ $rbx: .cfa -56 + ^ .cfa: $rsp 496 +
STACK CFI INIT 83a0 fc .cfa: $rsp 8 + .ra: .cfa -8 + ^
STACK CFI 83a2 .cfa: $rsp 16 +
STACK CFI 83a4 .cfa: $rsp 24 +
STACK CFI 83a5 .cfa: $rsp 32 +
STACK CFI 83a9 $r14: .cfa -24 + ^ $r15: .cfa -16 + ^ $rbx: .cfa -32 + ^ .cfa: $rsp 48 +
STACK CFI INIT 84a0 e3 .cfa: $rsp 8 + .ra: .cfa -8 + ^
STACK CFI 84a1 .cfa: $rsp 16 +
STACK CFI 84a3 .cfa: $rsp 24 +
STACK CFI 84a5 .cfa: $rsp 32 +
STACK CFI 84a6 .cfa: $rsp 40 +
STACK CFI 84aa $r14: .cfa -32 + ^ $r15: .cfa -24 + ^ $rbp: .cfa -16 + ^ $rbx: .cfa -40 + ^ .cfa: $rsp 64 +
STACK CFI INIT 8590 2a9 .cfa: $rsp 8 + .ra: .cfa -8 + ^
STACK CFI 8591 .cfa: $rsp 16 +
STACK CFI 8593 .cfa: $rsp 24 +
STACK CFI 8595 .cfa: $rsp 32 +
STACK CFI 8596 .cfa: $rsp 40 +
STACK CFI 859a $r14: .cfa -32 + ^ $r15: .cfa -24 + ^ $rbp: .cfa -16 + ^ $rbx: .cfa -40 + ^ .cfa: $rsp 160 +
STACK CFI INIT 8840 1bd .cfa: $rsp 8 + .ra: .cfa -8 + ^
STACK CFI 8841 .cfa: $rsp 16 +
STACK CFI 8843 .cfa: $rsp 24 +
STACK CFI 8844 .cfa: $rsp 32 +
STACK CFI 8848 $r14: .cfa -24 + ^ $rbp: .cfa -16 + ^ $rbx: .cfa -32 + ^ .cfa: $rsp 144 +
STACK CFI INIT 8a00 129 .cfa: $rsp 8 + .ra: .cfa -8 + ^
STACK CFI 8a02 .cfa: $rsp 16 +
STACK CFI 8a03 .cfa: $rsp 24 +
STACK CFI 8a0a $r14: .cfa -16 + ^ $rbx: .cfa -24 + ^ .cfa: $rsp 176 +
STACK CFI INIT 8b30 8f .cfa: $rsp 8 + .ra: .cfa -8 + ^
STACK CFI 8b32 .cfa: $rsp 16 +
STACK CFI 8b33 .cfa: $rsp 24 +
STACK CFI 8b3a $r14: .cfa -16 + ^ $rbx: .cfa -24 + ^ .cfa: $rsp 432 +
STACK CFI INIT 8bc0 32 .cfa: $rsp 8 + .ra: .cfa -8 + ^
STACK CFI 8bc1 .cfa: $rsp 16 +
STACK CFI INIT 8c00 108 .cfa: $rsp 8 + .ra: .cfa -8 + ^
STACK CFI 8c02 .cfa: $rsp 16 +
STACK CFI 8c03 .cfa: $rsp 24 +
STACK CFI 8c07 $r14: .cfa -16 + ^ $rbx: .cfa -24 + ^ .cfa: $rsp 64 +
STACK CFI INIT 8d10 6f .cfa: $rsp 8 + .ra: .cfa -8 + ^
STACK CFI 8d12 .cfa: $rsp 16 +
STACK CFI 8d14 .cfa: $rsp 24 +
STACK CFI 8d15 .cfa: $rsp 32 +
STACK CFI 8d19 $r14: .cfa -24 + ^ $r15: .cfa -16 + ^ $rbx: .cfa -32 + ^ .cfa: $rsp 48 +
STACK CFI INIT 8d80 79 .cfa: $rsp 8 + .ra: .cfa -8 + ^
STACK CFI 8d82 .cfa: $rsp 16 +
STACK CFI 8d83 .cfa: $rsp 24 +
STACK CFI 8d87 $r14: .cfa -16 + ^ $rbx: .cfa -24 + ^ .cfa: $rsp 80 +
STACK CFI INIT 8e00 121 .cfa: $rsp 8 + .ra: .cfa -8 + ^
STACK CFI 8e01 .cfa: $rsp 16 +
STACK CFI 8e03 .cfa: $rsp 24 +
STACK CFI 8e05 .cfa: $rsp 32 +
STACK CFI 8e06 .cfa: $rsp 40 +
STACK CFI 8e0a $r14: .cfa -32 + ^ $r15: .cfa -24 + ^ $rbp: .cfa -16 + ^ $rbx: .cfa -40 + ^ .cfa: $rsp 64 +
STACK CFI INIT 8f30 c2 .cfa: $rsp 8 + .ra: .cfa -8 + ^
STACK CFI 8f32 .cfa: $rsp 16 +
STACK CFI 8f33 .cfa: $rsp 24 +
STACK CFI 8f37 $r14: .cfa -16 + ^ $rbx: .cfa -24 + ^ .cfa: $rsp 48 +
STACK CFI INIT 9000 1fb .cfa: $rsp 8 + .ra: .cfa -8 + ^
STACK CFI 9001 .cfa: $rsp 16 +
STACK CFI 9003 .cfa: $rsp 24 +
STACK CFI 9005 .cfa: $rsp 32 +
STACK CFI 9007 .cfa: $rsp 40 +
STACK CFI 9009 .cfa: $rsp 48 +
STACK CFI 900a .cfa: $rsp 56 +
STACK CFI 900b $r12: .cfa -48 + ^ $r13: .cfa -40 + ^ $r14: .cfa -32 + ^ $r15: .cfa -24 + ^ $rbp: .cfa -16 + ^ $rbx: .cfa -56 + ^ .cfa: $rsp 64 +
STACK CFI INIT 9200 780 .cfa: $rsp 8 + .ra: .cfa -8 + ^
STACK CFI 9201 .cfa: $rsp 16 +
STACK CFI 9203 .cfa: $rsp 24 +
STACK CFI 9205 .cfa: $rsp 32 +
STACK CFI 9207 .cfa: $rsp 40 +
STACK CFI 9209 .cfa: $rsp 48 +
STACK CFI 920a .cfa: $rsp 56 +
STACK CFI 9211 $r12: .cfa -48 + ^ $r13: .cfa -40 + ^ $r14: .cfa -32 + ^ $r15: .cfa -24 + ^ $rbp: .cfa -16 + ^ $rbx: .cfa -56 + ^ .cfa: $rsp 240 +
STACK CFI INIT 9980 37f .cfa: $rsp 8 + .ra: .cfa -8 + ^
STACK CFI 9981 .cfa: $rsp 16 +
STACK CFI 9983 .cfa: $rsp 24 +
STACK CFI 9985 .cfa: $rsp 32 +
STACK CFI 9987 .cfa: $rsp 40 +
STACK CFI 9989 .cfa: $rsp 48 +
STACK CFI 998a .cfa: $rsp 56 +
STACK CFI 998e $r12: .cfa -48 + ^ $r13: .cfa -40 + ^ $r14: .cfa -32 + ^ $r15: .cfa -24 + ^ $rbp: .cfa -16 + ^ $rbx: .cfa -56 + ^ .cfa: $rsp 112 +
STACK CFI INIT 9d00 2b4 .cfa: $rsp 8 + .ra: .cfa -8 + ^
STACK CFI 9d01 .cfa: $rsp 16 +
STACK CFI 9d03 .cfa: $rsp 24 +
STACK CFI 9d05 .cfa: $rsp 32 +
STACK CFI 9d07 .cfa: $rsp 40 +
STACK CFI 9d09 .cfa: $rsp 48 +
STACK CFI 9d0a .cfa: $rsp 56 +
STACK CFI 9d0e $r12: .cfa -48 + ^ $r13: .cfa -40 + ^ $r14: .cfa -32 + ^ $r15: .cfa -24 + ^ $rbp: .cfa -16 + ^ $rbx: .cfa -56 + ^ .cfa: $rsp 96 +
STACK CFI INIT 9fc0 2c3 .cfa: $rsp 8 + .ra: .cfa -8 + ^
STACK CFI 9fc2 .cfa: $rsp 16 +
STACK CFI 9fc4 .cfa: $rsp 24 +
STACK CFI 9fc6 .cfa: $rsp 32 +
STACK CFI 9fc8 .cfa: $rsp 40 +
STACK CFI 9fc9 .cfa: $rsp 48 +
STACK CFI 9fd0 $r12: .cfa -40 + ^ $r13: .cfa -32 + ^ $r14: .cfa -24 + ^ $r15: .cfa -16 + ^ $rbx: .cfa -48 + ^ .cfa: $rsp 592 +
STACK CFI INIT a290 d3 .cfa: $rsp 8 + .ra: .cfa -8 + ^
STACK CFI a292 .cfa: $rsp 16 +
STACK CFI a294 .cfa: $rsp 24 +
STACK CFI a296 .cfa: $rsp 32 +
STACK CFI a298 .cfa: $rsp 40 +
STACK CFI a299 .cfa: $rsp 48 +
STACK CFI a29d $r12: .cfa -40 + ^ $r13: .cfa -32 + ^ $r14: .cfa -24 + ^ $r15: .cfa -16 + ^ $rbx: .cfa -48 + ^ .cfa: $rsp 160 +
STACK CFI INIT a370 8f .cfa: $rsp 8 + .ra: .cfa -8 + ^
STACK CFI a372 .cfa: $rsp 16 +
STACK CFI a374 .cfa: $rsp 24 +
STACK CFI a375 .cfa: $rsp 32 +
STACK CFI a379 $r14: .cfa -24 + ^ $r15: .cfa -16 + ^ $rbx: .cfa -32 + ^ .cfa: $rsp 80 +
STACK CFI INIT a400 27f .cfa: $rsp 8 + .ra: .cfa -8 + ^
STACK CFI a401 .cfa: $rsp 16 +
STACK CFI a403 .cfa: $rsp 24 +
STACK CFI a405 .cfa: $rsp 32 +
STACK CFI a407 .cfa: $rsp 40 +
STACK CFI a409 .cfa: $rsp 48 +
STACK CFI a40a .cfa: $rsp 56 +
STACK CFI a411 $r12: .cfa -48 + ^ $r13: .cfa -40 + ^ $r14: .cfa -32 + ^ $r15: .cfa -24 + ^ $rbp: .cfa -16 + ^ $rbx: .cfa -56 + ^ .cfa: $rsp 592 +
STACK CFI INIT a680 176 .cfa: $rsp 8 + .ra: .cfa -8 + ^
STACK CFI a681 .cfa: $rsp 16 +
STACK CFI a683 .cfa: $rsp 24 +
STACK CFI a685 .cfa: $rsp 32 +
STACK CFI a687 .cfa: $rsp 40 +
STACK CFI a689 .cfa: $rsp 48 +
STACK CFI a68a .cfa: $rsp 56 +
STACK CFI a68e $r12: .cfa -48 + ^ $r13: .cfa -40 + ^ $r14: .cfa -32 + ^ $r15: .cfa -24 + ^ $rbp: .cfa -16 + ^ $rbx: .cfa -56 + ^ .cfa: $rsp 112 +
STACK CFI INIT a800 50 .cfa: $rsp 8 + .ra: .cfa -8 + ^
STACK CFI a801 .cfa: $rsp 16 +
STACK CFI a805 $rbx: .cfa -16 + ^ .cfa: $rsp 32 +
STACK CFI INIT a850 50 .cfa: $rsp 8 + .ra: .cfa -8 + ^
STACK CFI a851 .cfa: $rsp 16 +
STACK CFI a855 $rbx: .cfa -16 + ^ .cfa: $rsp 32 +
STACK CFI INIT a8a0 55 .cfa: $rsp 8 + .ra: .cfa -8 + ^
STACK CFI a8a1 .cfa: $rsp 16 +
STACK CFI a8a5 $rbx: .cfa -16 + ^ .cfa: $rsp 32 +
STACK CFI INIT a900 2b5 .cfa: $rsp 8 + .ra: .cfa -8 + ^
STACK CFI a901 .cfa: $rsp 16 +
STACK CFI a903 .cfa: $rsp 24 +
STACK CFI a905 .cfa: $rsp 32 +
STACK CFI a907 .cfa: $rsp 40 +
STACK CFI a908 .cfa: $rsp 48 +
STACK CFI a90c $r12: .cfa -40 + ^ $r14: .cfa -32 + ^ $r15: .cfa -24 + ^ $rbp: .cfa -16 + ^ $rbx: .cfa -48 + ^ .cfa: $rsp 128 +
STACK CFI INIT abc0 94 .cfa: $rsp 8 + .ra: .cfa -8 + ^
STACK CFI abc2 .cfa: $rsp 16 +
STACK CFI abc4 .cfa: $rsp 24 +
STACK CFI abc5 .cfa: $rsp 32 +
STACK CFI abc9 $r14: .cfa -24 + ^ $r15: .cfa -16 + ^ $rbx: .cfa -32 + ^ .cfa: $rsp 48 +
STACK CFI INIT ac60 95 .cfa: $rsp 8 + .ra: .cfa -8 + ^
STACK CFI ac62 .cfa: $rsp 16 +
STACK CFI ac64 .cfa: $rsp 24 +
STACK CFI ac66 .cfa: $rsp 32 +
STACK CFI ac67 .cfa: $rsp 40 +
STACK CFI ac68 $r12: .cfa -32 + ^ $r14: .cfa -24 + ^ $r15: .cfa -16 + ^ $rbx: .cfa -40 + ^ .cfa: $rsp 48 +
STACK CFI INIT ad00 2b .cfa: $rsp 8 + .ra: .cfa -8 + ^
STACK CFI ad01 .cfa: $rsp 16 +
STACK CFI INIT ad30 12f .cfa: $rsp 8 + .ra: .cfa -8 + ^
STACK CFI ad31 .cfa: $rsp 16 +
STACK CFI ad33 .cfa: $rsp 24 +
STACK CFI ad35 .cfa: $rsp 32 +
STACK CFI ad37 .cfa: $rsp 40 +
STACK CFI ad39 .cfa: $rsp 48 +
STACK CFI ad3a .cfa: $rsp 56 +
STACK CFI ad3e $r12: .cfa -48 + ^ $r13: .cfa -40 + ^ $r14: .cfa -32 + ^ $r15: .cfa -24 + ^ $rbp: .cfa -16 + ^ $rbx: .cfa -56 + ^ .cfa: $rsp 160 +
STACK CFI INIT ae60 362 .cfa: $rsp 8 + .ra: .cfa -8 + ^
STACK CFI ae61 .cfa: $rsp 16 +
STACK CFI ae63 .cfa: $rsp 24 +
STACK CFI ae65 .cfa: $rsp 32 +
STACK CFI ae67 .cfa: $rsp 40 +
STACK CFI ae69 .cfa: $rsp 48 +
STACK CFI ae6a .cfa: $rsp 56 +
STACK CFI ae71 $r12: .cfa -48 + ^ $r13: .cfa -40 + ^ $r14: .cfa -32 + ^ $r15: .cfa -24 + ^ $rbp: .cfa -16 + ^ $rbx: .cfa -56 + ^ .cfa: $rsp 272 +
STACK CFI INIT b1d0 225 .cfa: $rsp 8 + .ra: .cfa -8 + ^
STACK CFI b1d2 .cfa: $rsp 16 +
STACK CFI b1d4 .cfa: $rsp 24 +
STACK CFI b1d6 .cfa: $rsp 32 +
STACK CFI b1d8 .cfa: $rsp 40 +
STACK CFI b1d9 .cfa: $rsp 48 +
STACK CFI b1e0 $r12: .cfa -40 + ^ $r13: .cfa -32 + ^ $r14: .cfa -24 + ^ $r15: .cfa -16 + ^ $rbx: .cfa -48 + ^ .cfa: $rsp 192 +
STACK CFI INIT b400 1b9 .cfa: $rsp 8 + .ra: .cfa -8 + ^
STACK CFI b401 .cfa: $rsp 16 +
STACK CFI b403 .cfa: $rsp 24 +
STACK CFI b405 .cfa: $rsp 32 +
STACK CFI b406 .cfa: $rsp 40 +
STACK CFI b40a $r14: .cfa -32 + ^ $r15: .cfa -24 + ^ $rbp: .cfa -16 + ^ $rbx: .cfa -40 + ^ .cfa: $rsp 144 +
STACK CFI INIT b5c0 1ba .cfa: $rsp 8 + .ra: .cfa -8 + ^
STACK CFI b5c1 .cfa: $rsp 16 +
STACK CFI b5c3 .cfa: $rsp 24 +
STACK CFI b5c5 .cfa: $rsp 32 +
STACK CFI b5c6 .cfa: $rsp 40 +
STACK CFI b5cd $r14: .cfa -32 + ^ $r15: .cfa -24 + ^ $rbp: .cfa -16 + ^ $rbx: .cfa -40 + ^ .cfa: $rsp 176 +
STACK CFI INIT b780 a6 .cfa: $rsp 8 + .ra: .cfa -8 + ^
STACK CFI b781 .cfa: $rsp 16 +
STACK CFI b783 .cfa: $rsp 24 +
STACK CFI b785 .cfa: $rsp 32 +
STACK CFI b787 .cfa: $rsp 40 +
STACK CFI b789 .cfa: $rsp 48 +
STACK CFI b78a .cfa: $rsp 56 +
STACK CFI b78e $r12: .cfa -48 + ^ $r13: .cfa -40 + ^ $r14: .cfa -32 + ^ $r15: .cfa -24 + ^ $rbp: .cfa -16 + ^ $rbx: .cfa -56 + ^ .cfa: $rsp 128 +
STACK CFI INIT b830 142 .cfa: $rsp 8 + .ra: .cfa -8 + ^
STACK CFI b831 .cfa: $rsp 16 +
STACK CFI b833 .cfa: $rsp 24 +
STACK CFI b835 .cfa: $rsp 32 +
STACK CFI b837 .cfa: $rsp 40 +
STACK CFI b839 .cfa: $rsp 48 +
STACK CFI b83a .cfa: $rsp 56 +
STACK CFI b841 $r12: .cfa -48 + ^ $r13: .cfa -40 + ^ $r14: .cfa -32 + ^ $r15: .cfa -24 + ^ $rbp: .cfa -16 + ^ $rbx: .cfa -56 + ^ .cfa: $rsp 224 +
STACK CFI INIT b980 34 .cfa: $rsp 8 + .ra: .cfa -8 + ^
STACK CFI b981 .cfa: $rsp 16 +
STACK CFI INIT b9c0 3e1 .cfa: $rsp 8 + .ra: .cfa -8 + ^
STACK CFI b9c1 .cfa: $rsp 16 +
STACK CFI b9c3 .cfa: $rsp 24 +
STACK CFI b9c5 .cfa: $rsp 32 +
STACK CFI b9c7 .cfa: $rsp 40 +
STACK CFI b9c9 .cfa: $rsp 48 +
STACK CFI b9ca .cfa: $rsp 56 +
STACK CFI b9d1 $r12: .cfa -48 + ^ $r13: .cfa -40 + ^ $r14: .cfa -32 + ^ $r15: .cfa -24 + ^ $rbp: .cfa -16 + ^ $rbx: .cfa -56 + ^ .cfa: $rsp 384 +
STACK CFI INIT bdb0 34 .cfa: $rsp 8 + .ra: .cfa -8 + ^
STACK CFI bdb1 .cfa: $rsp 16 +
STACK CFI INIT bdf0 1c3 .cfa: $rsp 8 + .ra: .cfa -8 + ^
STACK CFI bdf1 .cfa: $rsp 16 +
STACK CFI bdf3 .cfa: $rsp 24 +
STACK CFI bdf5 .cfa: $rsp 32 +
STACK CFI bdf7 .cfa: $rsp 40 +
STACK CFI bdf9 .cfa: $rsp 48 +
STACK CFI bdfa .cfa: $rsp 56 +
STACK CFI bdfe $r12: .cfa -48 + ^ $r13: .cfa -40 + ^ $r14: .cfa -32 + ^ $r15: .cfa -24 + ^ $rbp: .cfa -16 + ^ $rbx: .cfa -56 + ^ .cfa: $rsp 144 +
STACK CFI INIT bfc0 314 .cfa: $rsp 8 + .ra: .cfa -8 + ^
STACK CFI bfc2 .cfa: $rsp 16 +
STACK CFI bfc4 .cfa: $rsp 24 +
STACK CFI bfc6 .cfa: $rsp 32 +
STACK CFI bfc8 .cfa: $rsp 40 +
STACK CFI bfc9 .cfa: $rsp 48 +
STACK CFI bfd0 $r12: .cfa -40 + ^ $r13: .cfa -32 + ^ $r14: .cfa -24 + ^ $r15: .cfa -16 + ^ $rbx: .cfa -48 + ^ .cfa: $rsp 432 +
STACK CFI INIT c2e0 1e9 .cfa: $rsp 8 + .ra: .cfa -8 + ^
STACK CFI c2e1 .cfa: $rsp 16 +
STACK CFI c2e3 .cfa: $rsp 24 +
STACK CFI c2e5 .cfa: $rsp 32 +
STACK CFI c2e7 .cfa: $rsp 40 +
STACK CFI c2e8 .cfa: $rsp 48 +
STACK CFI c2ef $r12: .cfa -40 + ^ $r14: .cfa -32 + ^ $r15: .cfa -24 + ^ $rbp: .cfa -16 + ^ $rbx: .cfa -48 + ^ .cfa: $rsp 192 +
STACK CFI INIT c4d0 239 .cfa: $rsp 8 + .ra: .cfa -8 + ^
STACK CFI c4d1 .cfa: $rsp 16 +
STACK CFI c4d3 .cfa: $rsp 24 +
STACK CFI c4d5 .cfa: $rsp 32 +
STACK CFI c4d7 .cfa: $rsp 40 +
STACK CFI c4d9 .cfa: $rsp 48 +
STACK CFI c4da .cfa: $rsp 56 +
STACK CFI c4e1 $r12: .cfa -48 + ^ $r13: .cfa -40 + ^ $r14: .cfa -32 + ^ $r15: .cfa -24 + ^ $rbp: .cfa -16 + ^ $rbx: .cfa -56 + ^ .cfa: $rsp 256 +
STACK CFI INIT c710 1c9 .cfa: $rsp 8 + .ra: .cfa -8 + ^
STACK CFI c711 .cfa: $rsp 16 +
STACK CFI c713 .cfa: $rsp 24 +
STACK CFI c715 .cfa: $rsp 32 +
STACK CFI c717 .cfa: $rsp 40 +
STACK CFI c719 .cfa: $rsp 48 +
STACK CFI c71a .cfa: $rsp 56 +
STACK CFI c721 $r12: .cfa -48 + ^ $r13: .cfa -40 + ^ $r14: .cfa -32 + ^ $r15: .cfa -24 + ^ $rbp: .cfa -16 + ^ $rbx: .cfa -56 + ^ .cfa: $rsp 240 +
STACK CFI INIT c8e0 116 .cfa: $rsp 8 + .ra: .cfa -8 + ^
STACK CFI c8e2 .cfa: $rsp 16 +
STACK CFI c8e4 .cfa: $rsp 24 +
STACK CFI c8e6 .cfa: $rsp 32 +
STACK CFI c8e7 .cfa: $rsp 40 +
STACK CFI c8eb $r12: .cfa -32 + ^ $r14: .cfa -24 + ^ $r15: .cfa -16 + ^ $rbx: .cfa -40 + ^ .cfa: $rsp 160 +
STACK CFI INIT ca00 2ed .cfa: $rsp 8 + .ra: .cfa -8 + ^
STACK CFI ca01 .cfa: $rsp 16 +
STACK CFI ca03 .cfa: $rsp 24 +
STACK CFI ca05 .cfa: $rsp 32 +
STACK CFI ca07 .cfa: $rsp 40 +
STACK CFI ca08 .cfa: $rsp 48 +
STACK CFI ca0f $r12: .cfa -40 + ^ $r14: .cfa -32 + ^ $r15: .cfa -24 + ^ $rbp: .cfa -16 + ^ $rbx: .cfa -48 + ^ .cfa: $rsp 400 +
STACK CFI INIT ccf0 1b2 .cfa: $rsp 8 + .ra: .cfa -8 + ^
STACK CFI ccf1 .cfa: $rsp 16 +
STACK CFI ccf3 .cfa: $rsp 24 +
STACK CFI ccf5 .cfa: $rsp 32 +
STACK CFI ccf7 .cfa: $rsp 40 +
STACK CFI ccf9 .cfa: $rsp 48 +
STACK CFI ccfa .cfa: $rsp 56 +
STACK CFI cd01 $r12: .cfa -48 + ^ $r13: .cfa -40 + ^ $r14: .cfa -32 + ^ $r15: .cfa -24 + ^ $rbp: .cfa -16 + ^ $rbx: .cfa -56 + ^ .cfa: $rsp 208 +
STACK CFI INIT ceb0 aee .cfa: $rsp 8 + .ra: .cfa -8 + ^
STACK CFI ceb1 .cfa: $rsp 16 +
STACK CFI ceb3 .cfa: $rsp 24 +
STACK CFI ceb5 .cfa: $rsp 32 +
STACK CFI ceb7 .cfa: $rsp 40 +
STACK CFI ceb9 .cfa: $rsp 48 +
STACK CFI ceba .cfa: $rsp 56 +
STACK CFI cec1 $r12: .cfa -48 + ^ $r13: .cfa -40 + ^ $r14: .cfa -32 + ^ $r15: .cfa -24 + ^ $rbp: .cfa -16 + ^ $rbx: .cfa -56 + ^ .cfa: $rsp 480 +
STACK CFI INIT d9a0 3e9 .cfa: $rsp 8 + .ra: .cfa -8 + ^
STACK CFI d9a1 .cfa: $rsp 16 +
STACK CFI d9a3 .cfa: $rsp 24 +
STACK CFI d9a5 .cfa: $rsp 32 +
STACK CFI d9a7 .cfa: $rsp 40 +
STACK CFI d9a9 .cfa: $rsp 48 +
STACK CFI d9aa .cfa: $rsp 56 +
STACK CFI d9b1 $r12: .cfa -48 + ^ $r13: .cfa -40 + ^ $r14: .cfa -32 + ^ $r15: .cfa -24 + ^ $rbp: .cfa -16 + ^ $rbx: .cfa -56 + ^ .cfa: $rsp 736 +
STACK CFI INIT dd90 2fc .cfa: $rsp 8 + .ra: .cfa -8 + ^
STACK CFI dd91 .cfa: $rsp 16 +
STACK CFI dd93 .cfa: $rsp 24 +
STACK CFI dd95 .cfa: $rsp 32 +
STACK CFI dd97 .cfa: $rsp 40 +
STACK CFI dd99 .cfa: $rsp 48 +
STACK CFI dd9a .cfa: $rsp 56 +
STACK CFI dda1 $r12: .cfa -48 + ^ $r13: .cfa -40 + ^ $r14: .cfa -32 + ^ $r15: .cfa -24 + ^ $rbp: .cfa -16 + ^ $rbx: .cfa -56 + ^ .cfa: $rsp 304 +
STACK CFI INIT e090 19f .cfa: $rsp 8 + .ra: .cfa -8 + ^
STACK CFI e091 .cfa: $rsp 16 +
STACK CFI e093 .cfa: $rsp 24 +
STACK CFI e095 .cfa: $rsp 32 +
STACK CFI e097 .cfa: $rsp 40 +
STACK CFI e099 .cfa: $rsp 48 +
STACK CFI e09a .cfa: $rsp 56 +
STACK CFI e0a1 $r12: .cfa -48 + ^ $r13: .cfa -40 + ^ $r14: .cfa -32 + ^ $r15: .cfa -24 + ^ $rbp: .cfa -16 + ^ $rbx: .cfa -56 + ^ .cfa: $rsp 192 +
STACK CFI INIT e230 40f .cfa: $rsp 8 + .ra: .cfa -8 + ^
STACK CFI e231 .cfa: $rsp 16 +
STACK CFI e233 .cfa: $rsp 24 +
STACK CFI e235 .cfa: $rsp 32 +
STACK CFI e237 .cfa: $rsp 40 +
STACK CFI e239 .cfa: $rsp 48 +
STACK CFI e23a .cfa: $rsp 56 +
STACK CFI e241 $r12: .cfa -48 + ^ $r13: .cfa -40 + ^ $r14: .cfa -32 + ^ $r15: .cfa -24 + ^ $rbp: .cfa -16 + ^ $rbx: .cfa -56 + ^ .cfa: $rsp 656 +
STACK CFI INIT e640 d0 .cfa: $rsp 8 + .ra: .cfa -8 + ^
STACK CFI e642 .cfa: $rsp 16 +
STACK CFI e643 .cfa: $rsp 24 +
STACK CFI e64a $r14: .cfa -16 + ^ $rbx: .cfa -24 + ^ .cfa: $rsp 592 +
STACK CFI INIT e710 e2 .cfa: $rsp 8 + .ra: .cfa -8 + ^
STACK CFI e711 .cfa: $rsp 16 +
STACK CFI e713 .cfa: $rsp 24 +
STACK CFI e715 .cfa: $rsp 32 +
STACK CFI e717 .cfa: $rsp 40 +
STACK CFI e718 .cfa: $rsp 48 +
STACK CFI e71c $r12: .cfa -40 + ^ $r14: .cfa -32 + ^ $r15: .cfa -24 + ^ $rbp: .cfa -16 + ^ $rbx: .cfa -48 + ^ .cfa: $rsp 96 +
STACK CFI INIT e800 377 .cfa: $rsp 8 + .ra: .cfa -8 + ^
STACK CFI e801 .cfa: $rsp 16 +
STACK CFI e803 .cfa: $rsp 24 +
STACK CFI e805 .cfa: $rsp 32 +
STACK CFI e807 .cfa: $rsp 40 +
STACK CFI e809 .cfa: $rsp 48 +
STACK CFI e80a .cfa: $rsp 56 +
STACK CFI e80b $r12: .cfa -48 + ^ $r13: .cfa -40 + ^ $r14: .cfa -32 + ^ $r15: .cfa -24 + ^ $rbp: .cfa -16 + ^ $rbx: .cfa -56 + ^ .cfa: $rsp 64 +
STACK CFI INIT eb80 243 .cfa: $rsp 8 + .ra: .cfa -8 + ^
STACK CFI eb81 .cfa: $rsp 16 +
STACK CFI eb83 .cfa: $rsp 24 +
STACK CFI eb85 .cfa: $rsp 32 +
STACK CFI eb87 .cfa: $rsp 40 +
STACK CFI eb89 .cfa: $rsp 48 +
STACK CFI eb8a .cfa: $rsp 56 +
STACK CFI eb8e $r12: .cfa -48 + ^ $r13: .cfa -40 + ^ $r14: .cfa -32 + ^ $r15: .cfa -24 + ^ $rbp: .cfa -16 + ^ $rbx: .cfa -56 + ^ .cfa: $rsp 144 +
STACK CFI INIT edd0 377 .cfa: $rsp 8 + .ra: .cfa -8 + ^
STACK CFI edd1 .cfa: $rsp 16 +
STACK CFI edd3 .cfa: $rsp 24 +
STACK CFI edd5 .cfa: $rsp 32 +
STACK CFI edd7 .cfa: $rsp 40 +
STACK CFI edd9 .cfa: $rsp 48 +
STACK CFI edda .cfa: $rsp 56 +
STACK CFI eddb $r12: .cfa -48 + ^ $r13: .cfa -40 + ^ $r14: .cfa -32 + ^ $r15: .cfa -24 + ^ $rbp: .cfa -16 + ^ $rbx: .cfa -56 + ^ .cfa: $rsp 64 +
STACK CFI INIT f150 1a9 .cfa: $rsp 8 + .ra: .cfa -8 + ^
STACK CFI f151 .cfa: $rsp 16 +
STACK CFI f153 .cfa: $rsp 24 +
STACK CFI f155 .cfa: $rsp 32 +
STACK CFI f157 .cfa: $rsp 40 +
STACK CFI f159 .cfa: $rsp 48 +
STACK CFI f15a .cfa: $rsp 56 +
STACK CFI f15e $r12: .cfa -48 + ^ $r13: .cfa -40 + ^ $r14: .cfa -32 + ^ $r15: .cfa -24 + ^ $rbp: .cfa -16 + ^ $rbx: .cfa -56 + ^ .cfa: $rsp 80 +
STACK CFI INIT f300 2c1 .cfa: $rsp 8 + .ra: .cfa -8 + ^
STACK CFI f301 .cfa: $rsp 16 +
STACK CFI f303 .cfa: $rsp 24 +
STACK CFI f305 .cfa: $rsp 32 +
STACK CFI f307 .cfa: $rsp 40 +
STACK CFI f309 .cfa: $rsp 48 +
STACK CFI f30a .cfa: $rsp 56 +
STACK CFI f30e $r12: .cfa -48 + ^ $r13: .cfa -40 + ^ $r14: .cfa -32 + ^ $r15: .cfa -24 + ^ $rbp: .cfa -16 + ^ $rbx: .cfa -56 + ^ .cfa: $rsp 80 +
STACK CFI INIT f5d0 175 .cfa: $rsp 8 + .ra: .cfa -8 + ^
STACK CFI f5d1 .cfa: $rsp 16 +
STACK CFI f5d3 .cfa: $rsp 24 +
STACK CFI f5d5 .cfa: $rsp 32 +
STACK CFI f5d7 .cfa: $rsp 40 +
STACK CFI f5d9 .cfa: $rsp 48 +
STACK CFI f5da .cfa: $rsp 56 +
STACK CFI f5de $r12: .cfa -48 + ^ $r13: .cfa -40 + ^ $r14: .cfa -32 + ^ $r15: .cfa -24 + ^ $rbp: .cfa -16 + ^ $rbx: .cfa -56 + ^ .cfa: $rsp 80 +
STACK CFI INIT f750 4f .cfa: $rsp 8 + .ra: .cfa -8 + ^
STACK CFI f751 .cfa: $rsp 16 +
STACK CFI f755 $rbx: .cfa -16 + ^ .cfa: $rsp 32 +
STACK CFI INIT f7a0 57 .cfa: $rsp 8 + .ra: .cfa -8 + ^
STACK CFI f7a1 .cfa: $rsp 16 +
STACK CFI f7a5 $rbx: .cfa -16 + ^ .cfa: $rsp 32 +
STACK CFI INIT f800 43a .cfa: $rsp 8 + .ra: .cfa -8 + ^
STACK CFI f801 .cfa: $rsp 16 +
STACK CFI f803 .cfa: $rsp 24 +
STACK CFI f805 .cfa: $rsp 32 +
STACK CFI f807 .cfa: $rsp 40 +
STACK CFI f809 .cfa: $rsp 48 +
STACK CFI f80a .cfa: $rsp 56 +
STACK CFI f80e $r12: .cfa -48 + ^ $r13: .cfa -40 + ^ $r14: .cfa -32 + ^ $r15: .cfa -24 + ^ $rbp: .cfa -16 + ^ $rbx: .cfa -56 + ^ .cfa: $rsp 112 +
STACK CFI INIT fc40 7b .cfa: $rsp 8 + .ra: .cfa -8 + ^
STACK CFI fc41 .cfa: $rsp 16 +
STACK CFI fc45 $rbx: .cfa -16 + ^ .cfa: $rsp 32 +
STACK CFI INIT fcc0 8f .cfa: $rsp 8 + .ra: .cfa -8 + ^
STACK CFI fcc2 .cfa: $rsp 16 +
STACK CFI fcc3 .cfa: $rsp 24 +
STACK CFI fcc7 $r14: .cfa -16 + ^ $rbx: .cfa -24 + ^ .cfa: $rsp 64 +
STACK CFI INIT fd50 e3 .cfa: $rsp 8 + .ra: .cfa -8 + ^
STACK CFI fd52 .cfa: $rsp 16 +
STACK CFI fd54 .cfa: $rsp 24 +
STACK CFI fd55 .cfa: $rsp 32 +
STACK CFI fd59 $r14: .cfa -24 + ^ $r15: .cfa -16 + ^ $rbx: .cfa -32 + ^ .cfa: $rsp 48 +
STACK CFI INIT fe40 195 .cfa: $rsp 8 + .ra: .cfa -8 + ^
STACK CFI fe41 .cfa: $rsp 16 +
STACK CFI fe43 .cfa: $rsp 24 +
STACK CFI fe45 .cfa: $rsp 32 +
STACK CFI fe47 .cfa: $rsp 40 +
STACK CFI fe49 .cfa: $rsp 48 +
STACK CFI fe4a .cfa: $rsp 56 +
STACK CFI fe4e $r12: .cfa -48 + ^ $r13: .cfa -40 + ^ $r14: .cfa -32 + ^ $r15: .cfa -24 + ^ $rbp: .cfa -16 + ^ $rbx: .cfa -56 + ^ .cfa: $rsp 160 +
STACK CFI INIT ffe0 8b .cfa: $rsp 8 + .ra: .cfa -8 + ^
STACK CFI ffe2 .cfa: $rsp 16 +
STACK CFI ffe3 .cfa: $rsp 24 +
STACK CFI ffe4 $r14: .cfa -16 + ^ $rbx: .cfa -24 + ^ .cfa: $rsp 32 +
STACK CFI INIT 10070 f5 .cfa: $rsp 8 + .ra: .cfa -8 + ^
STACK CFI 10072 .cfa: $rsp 16 +
STACK CFI 10073 .cfa: $rsp 24 +
STACK CFI 10074 $r14: .cfa -16 + ^ $rbx: .cfa -24 + ^ .cfa: $rsp 32 +
STACK CFI INIT 10170 11c .cfa: $rsp 8 + .ra: .cfa -8 + ^
STACK CFI 10172 .cfa: $rsp 16 +
STACK CFI 10174 .cfa: $rsp 24 +
STACK CFI 10175 .cfa: $rsp 32 +
STACK CFI 10179 $r14: .cfa -24 + ^ $r15: .cfa -16 + ^ $rbx: .cfa -32 + ^ .cfa: $rsp 80 +
STACK CFI INIT 10290 3e .cfa: $rsp 8 + .ra: .cfa -8 + ^
STACK CFI 10291 .cfa: $rsp 16 +
STACK CFI 10295 $rbx: .cfa -16 + ^ .cfa: $rsp 32 +
STACK CFI INIT 102d0 4e .cfa: $rsp 8 + .ra: .cfa -8 + ^
STACK CFI 102d2 .cfa: $rsp 16 +
STACK CFI 102d3 .cfa: $rsp 24 +
STACK CFI 102d4 $r14: .cfa -16 + ^ $rbx: .cfa -24 + ^ .cfa: $rsp 32 +
STACK CFI INIT 10320 40 .cfa: $rsp 8 + .ra: .cfa -8 + ^
STACK CFI 10321 .cfa: $rsp 16 +
STACK CFI INIT 10360 81 .cfa: $rsp 8 + .ra: .cfa -8 + ^
STACK CFI 10362 .cfa: $rsp 16 +
STACK CFI 10364 .cfa: $rsp 24 +
STACK CFI 10365 .cfa: $rsp 32 +
STACK CFI 10369 $r14: .cfa -24 + ^ $r15: .cfa -16 + ^ $rbx: .cfa -32 + ^ .cfa: $rsp 48 +
STACK CFI INIT 103f0 116 .cfa: $rsp 8 + .ra: .cfa -8 + ^
STACK CFI 103f1 .cfa: $rsp 16 +
STACK CFI 103f3 .cfa: $rsp 24 +
STACK CFI 103f5 .cfa: $rsp 32 +
STACK CFI 103f7 .cfa: $rsp 40 +
STACK CFI 103f9 .cfa: $rsp 48 +
STACK CFI 103fa .cfa: $rsp 56 +
STACK CFI 10401 $r12: .cfa -48 + ^ $r13: .cfa -40 + ^ $r14: .cfa -32 + ^ $r15: .cfa -24 + ^ $rbp: .cfa -16 + ^ $rbx: .cfa -56 + ^ .cfa: $rsp 480 +
STACK CFI INIT 10510 72 .cfa: $rsp 8 + .ra: .cfa -8 + ^
STACK CFI 10511 .cfa: $rsp 16 +
STACK CFI 10513 .cfa: $rsp 24 +
STACK CFI 10515 .cfa: $rsp 32 +
STACK CFI 10516 .cfa: $rsp 40 +
STACK CFI 10517 $r14: .cfa -32 + ^ $r15: .cfa -24 + ^ $rbp: .cfa -16 + ^ $rbx: .cfa -40 + ^ .cfa: $rsp 48 +
STACK CFI INIT 10590 b9 .cfa: $rsp 8 + .ra: .cfa -8 + ^
STACK CFI 10591 .cfa: $rsp 16 +
STACK CFI 10593 .cfa: $rsp 24 +
STACK CFI 10595 .cfa: $rsp 32 +
STACK CFI 10597 .cfa: $rsp 40 +
STACK CFI 10599 .cfa: $rsp 48 +
STACK CFI 1059a .cfa: $rsp 56 +
STACK CFI 1059e $r12: .cfa -48 + ^ $r13: .cfa -40 + ^ $r14: .cfa -32 + ^ $r15: .cfa -24 + ^ $rbp: .cfa -16 + ^ $rbx: .cfa -56 + ^ .cfa: $rsp 80 +
STACK CFI INIT 10650 48 .cfa: $rsp 8 + .ra: .cfa -8 + ^
STACK CFI 10654 .cfa: $rsp 32 +
STACK CFI INIT 106a0 92 .cfa: $rsp 8 + .ra: .cfa -8 + ^
STACK CFI 106a1 .cfa: $rsp 16 +
STACK CFI 106a3 .cfa: $rsp 24 +
STACK CFI 106a5 .cfa: $rsp 32 +
STACK CFI 106a6 .cfa: $rsp 40 +
STACK CFI 106aa $r14: .cfa -32 + ^ $r15: .cfa -24 + ^ $rbp: .cfa -16 + ^ $rbx: .cfa -40 + ^ .cfa: $rsp 64 +
STACK CFI INIT 10740 102 .cfa: $rsp 8 + .ra: .cfa -8 + ^
STACK CFI 10742 .cfa: $rsp 16 +
STACK CFI 10744 .cfa: $rsp 24 +
STACK CFI 10745 .cfa: $rsp 32 +
STACK CFI 1074c $r14: .cfa -24 + ^ $r15: .cfa -16 + ^ $rbx: .cfa -32 + ^ .cfa: $rsp 448 +
STACK CFI INIT 10850 b3 .cfa: $rsp 8 + .ra: .cfa -8 + ^
STACK CFI 10851 .cfa: $rsp 16 +
STACK CFI 10858 $rbx: .cfa -16 + ^ .cfa: $rsp 432 +
STACK CFI INIT 10910 99 .cfa: $rsp 8 + .ra: .cfa -8 + ^
STACK CFI 10911 .cfa: $rsp 16 +
STACK CFI 10918 $rbx: .cfa -16 + ^ .cfa: $rsp 432 +
STACK CFI INIT 109b0 14e .cfa: $rsp 8 + .ra: .cfa -8 + ^
STACK CFI 109b1 .cfa: $rsp 16 +
STACK CFI 109b8 $rbx: .cfa -16 + ^ .cfa: $rsp 448 +
STACK CFI INIT 10b00 17d .cfa: $rsp 8 + .ra: .cfa -8 + ^
STACK CFI 10b01 .cfa: $rsp 16 +
STACK CFI 10b03 .cfa: $rsp 24 +
STACK CFI 10b05 .cfa: $rsp 32 +
STACK CFI 10b07 .cfa: $rsp 40 +
STACK CFI 10b09 .cfa: $rsp 48 +
STACK CFI 10b0a .cfa: $rsp 56 +
STACK CFI 10b11 $r12: .cfa -48 + ^ $r13: .cfa -40 + ^ $r14: .cfa -32 + ^ $r15: .cfa -24 + ^ $rbp: .cfa -16 + ^ $rbx: .cfa -56 + ^ .cfa: $rsp 4608 +
STACK CFI INIT 10c80 67 .cfa: $rsp 8 + .ra: .cfa -8 + ^
STACK CFI 10c81 .cfa: $rsp 16 +
STACK CFI 10c82 .cfa: $rsp 24 +
STACK CFI 10c83 $rbp: .cfa -16 + ^ $rbx: .cfa -24 + ^ .cfa: $rsp 32 +
STACK CFI INIT 10cf0 99 .cfa: $rsp 8 + .ra: .cfa -8 + ^
STACK CFI 10cf1 .cfa: $rsp 16 +
STACK CFI 10cf8 $rbx: .cfa -16 + ^ .cfa: $rsp 432 +
STACK CFI INIT 10d90 ae .cfa: $rsp 8 + .ra: .cfa -8 + ^
STACK CFI 10d91 .cfa: $rsp 16 +
STACK CFI 10d98 $rbx: .cfa -16 + ^ .cfa: $rsp 432 +
STACK CFI INIT 10e40 2c .cfa: $rsp 8 + .ra: .cfa -8 + ^
STACK CFI 10e41 .cfa: $rsp 16 +
STACK CFI INIT 10e70 278 .cfa: $rsp 8 + .ra: .cfa -8 + ^
STACK CFI 10e71 .cfa: $rsp 16 +
STACK CFI 10e73 .cfa: $rsp 24 +
STACK CFI 10e75 .cfa: $rsp 32 +
STACK CFI 10e77 .cfa: $rsp 40 +
STACK CFI 10e79 .cfa: $rsp 48 +
STACK CFI 10e7a .cfa: $rsp 56 +
STACK CFI 10e81 $r12: .cfa -48 + ^ $r13: .cfa -40 + ^ $r14: .cfa -32 + ^ $r15: .cfa -24 + ^ $rbp: .cfa -16 + ^ $rbx: .cfa -56 + ^ .cfa: $rsp 464 +
STACK CFI INIT 110f0 49 .cfa: $rsp 8 + .ra: .cfa -8 + ^
STACK CFI 110f4 .cfa: $rsp 32 +
STACK CFI INIT 11140 4c .cfa: $rsp 8 + .ra: .cfa -8 + ^
STACK CFI 11141 .cfa: $rsp 16 +
STACK CFI INIT 11190 31 .cfa: $rsp 8 + .ra: .cfa -8 + ^
STACK CFI 11191 .cfa: $rsp 16 +
STACK CFI INIT 111d0 24 .cfa: $rsp 8 + .ra: .cfa -8 + ^
STACK CFI 111d1 .cfa: $rsp 16 +
STACK CFI INIT 11200 24 .cfa: $rsp 8 + .ra: .cfa -8 + ^
STACK CFI 11201 .cfa: $rsp 16 +
STACK CFI INIT 11230 29 .cfa: $rsp 8 + .ra: .cfa -8 + ^
STACK CFI 11231 .cfa: $rsp 16 +
STACK CFI INIT 11260 9d .cfa: $rsp 8 + .ra: .cfa -8 + ^
STACK CFI 11261 .cfa: $rsp 16 +
STACK CFI 11268 $rbx: .cfa -16 + ^ .cfa: $rsp 432 +
STACK CFI INIT 11300 2c .cfa: $rsp 8 + .ra: .cfa -8 + ^
STACK CFI 11301 .cfa: $rsp 16 +
STACK CFI INIT 11330 34 .cfa: $rsp 8 + .ra: .cfa -8 + ^
STACK CFI 11331 .cfa: $rsp 16 +
STACK CFI INIT 11370 62 .cfa: $rsp 8 + .ra: .cfa -8 + ^
STACK CFI 11371 .cfa: $rsp 16 +
STACK CFI INIT 113e0 47 .cfa: $rsp 8 + .ra: .cfa -8 + ^
STACK CFI 113e1 .cfa: $rsp 16 +
STACK CFI INIT 11430 57 .cfa: $rsp 8 + .ra: .cfa -8 + ^
STACK CFI 11431 .cfa: $rsp 16 +
STACK CFI 11435 $rbx: .cfa -16 + ^ .cfa: $rsp 32 +
STACK CFI INIT 11490 4f .cfa: $rsp 8 + .ra: .cfa -8 + ^
STACK CFI 11491 .cfa: $rsp 16 +
STACK CFI 11495 $rbx: .cfa -16 + ^ .cfa: $rsp 32 +
STACK CFI INIT 114e0 50 .cfa: $rsp 8 + .ra: .cfa -8 + ^
STACK CFI 114e1 .cfa: $rsp 16 +
STACK CFI 114e5 $rbx: .cfa -16 + ^ .cfa: $rsp 32 +
STACK CFI INIT 11530 eb .cfa: $rsp 8 + .ra: .cfa -8 + ^
STACK CFI 11531 .cfa: $rsp 16 +
STACK CFI 11533 .cfa: $rsp 24 +
STACK CFI 11534 .cfa: $rsp 32 +
STACK CFI 1153b $r14: .cfa -24 + ^ $rbp: .cfa -16 + ^ $rbx: .cfa -32 + ^ .cfa: $rsp 448 +
STACK CFI INIT 11620 c8 .cfa: $rsp 8 + .ra: .cfa -8 + ^
STACK CFI 11622 .cfa: $rsp 16 +
STACK CFI 11623 .cfa: $rsp 24 +
STACK CFI 1162a $r14: .cfa -16 + ^ $rbx: .cfa -24 + ^ .cfa: $rsp 432 +
STACK CFI INIT 116f0 9d .cfa: $rsp 8 + .ra: .cfa -8 + ^
STACK CFI 116f1 .cfa: $rsp 16 +
STACK CFI 116f8 $rbx: .cfa -16 + ^ .cfa: $rsp 432 +
STACK CFI INIT 11790 2c .cfa: $rsp 8 + .ra: .cfa -8 + ^
STACK CFI 11791 .cfa: $rsp 16 +
STACK CFI INIT 117c0 34 .cfa: $rsp 8 + .ra: .cfa -8 + ^
STACK CFI 117c1 .cfa: $rsp 16 +
STACK CFI INIT 11800 2 .cfa: $rsp 8 + .ra: .cfa -8 + ^
STACK CFI INIT 11810 2 .cfa: $rsp 8 + .ra: .cfa -8 + ^
STACK CFI INIT 11820 2e .cfa: $rsp 8 + .ra: .cfa -8 + ^
STACK CFI 11821 .cfa: $rsp 16 +
STACK CFI INIT 11850 4c .cfa: $rsp 8 + .ra: .cfa -8 + ^
STACK CFI 11851 .cfa: $rsp 16 +
STACK CFI INIT 118a0 31 .cfa: $rsp 8 + .ra: .cfa -8 + ^
STACK CFI 118a1 .cfa: $rsp 16 +
STACK CFI INIT 118e0 24 .cfa: $rsp 8 + .ra: .cfa -8 + ^
STACK CFI 118e1 .cfa: $rsp 16 +
STACK CFI INIT 11910 24 .cfa: $rsp 8 + .ra: .cfa -8 + ^
STACK CFI 11911 .cfa: $rsp 16 +
STACK CFI INIT 11940 29 .cfa: $rsp 8 + .ra: .cfa -8 + ^
STACK CFI 11941 .cfa: $rsp 16 +
STACK CFI INIT 11970 2c .cfa: $rsp 8 + .ra: .cfa -8 + ^
STACK CFI 11971 .cfa: $rsp 16 +
STACK CFI INIT 119a0 279 .cfa: $rsp 8 + .ra: .cfa -8 + ^
STACK CFI 119a1 .cfa: $rsp 16 +
STACK CFI 119a3 .cfa: $rsp 24 +
STACK CFI 119a5 .cfa: $rsp 32 +
STACK CFI 119a7 .cfa: $rsp 40 +
STACK CFI 119a9 .cfa: $rsp 48 +
STACK CFI 119aa .cfa: $rsp 56 +
STACK CFI 119b1 $r12: .cfa -48 + ^ $r13: .cfa -40 + ^ $r14: .cfa -32 + ^ $r15: .cfa -24 + ^ $rbp: .cfa -16 + ^ $rbx: .cfa -56 + ^ .cfa: $rsp 480 +
STACK CFI INIT 11c20 2c .cfa: $rsp 8 + .ra: .cfa -8 + ^
STACK CFI 11c21 .cfa: $rsp 16 +
STACK CFI INIT 11c50 34 .cfa: $rsp 8 + .ra: .cfa -8 + ^
STACK CFI 11c51 .cfa: $rsp 16 +
STACK CFI INIT 11c90 62 .cfa: $rsp 8 + .ra: .cfa -8 + ^
STACK CFI 11c91 .cfa: $rsp 16 +
STACK CFI INIT 11d00 47 .cfa: $rsp 8 + .ra: .cfa -8 + ^
STACK CFI 11d01 .cfa: $rsp 16 +
STACK CFI INIT 11d50 57 .cfa: $rsp 8 + .ra: .cfa -8 + ^
STACK CFI 11d51 .cfa: $rsp 16 +
STACK CFI 11d55 $rbx: .cfa -16 + ^ .cfa: $rsp 32 +
STACK CFI INIT 11db0 4f .cfa: $rsp 8 + .ra: .cfa -8 + ^
STACK CFI 11db1 .cfa: $rsp 16 +
STACK CFI 11db5 $rbx: .cfa -16 + ^ .cfa: $rsp 32 +
STACK CFI INIT 11e00 50 .cfa: $rsp 8 + .ra: .cfa -8 + ^
STACK CFI 11e01 .cfa: $rsp 16 +
STACK CFI 11e05 $rbx: .cfa -16 + ^ .cfa: $rsp 32 +
STACK CFI INIT 11e50 100 .cfa: $rsp 8 + .ra: .cfa -8 + ^
STACK CFI 11e51 .cfa: $rsp 16 +
STACK CFI 11e53 .cfa: $rsp 24 +
STACK CFI 11e55 .cfa: $rsp 32 +
STACK CFI 11e57 .cfa: $rsp 40 +
STACK CFI 11e58 .cfa: $rsp 48 +
STACK CFI 11e5f $r12: .cfa -40 + ^ $r14: .cfa -32 + ^ $r15: .cfa -24 + ^ $rbp: .cfa -16 + ^ $rbx: .cfa -48 + ^ .cfa: $rsp 464 +
STACK CFI INIT 11f50 eb .cfa: $rsp 8 + .ra: .cfa -8 + ^
STACK CFI 11f51 .cfa: $rsp 16 +
STACK CFI 11f53 .cfa: $rsp 24 +
STACK CFI 11f54 .cfa: $rsp 32 +
STACK CFI 11f5b $r14: .cfa -24 + ^ $rbp: .cfa -16 + ^ $rbx: .cfa -32 + ^ .cfa: $rsp 448 +
STACK CFI INIT 12040 27 .cfa: $rsp 8 + .ra: .cfa -8 + ^
STACK CFI 12041 .cfa: $rsp 16 +
STACK CFI INIT 12070 c8 .cfa: $rsp 8 + .ra: .cfa -8 + ^
STACK CFI 12072 .cfa: $rsp 16 +
STACK CFI 12073 .cfa: $rsp 24 +
STACK CFI 1207a $r14: .cfa -16 + ^ $rbx: .cfa -24 + ^ .cfa: $rsp 432 +
STACK CFI INIT 12140 2c .cfa: $rsp 8 + .ra: .cfa -8 + ^
STACK CFI 12141 .cfa: $rsp 16 +
STACK CFI INIT 12170 2d .cfa: $rsp 8 + .ra: .cfa -8 + ^
STACK CFI 12171 .cfa: $rsp 16 +
STACK CFI INIT 121a0 2c .cfa: $rsp 8 + .ra: .cfa -8 + ^
STACK CFI 121a1 .cfa: $rsp 16 +
STACK CFI INIT 121d0 34 .cfa: $rsp 8 + .ra: .cfa -8 + ^
STACK CFI 121d1 .cfa: $rsp 16 +
STACK CFI INIT 12210 2 .cfa: $rsp 8 + .ra: .cfa -8 + ^
STACK CFI INIT 12220 2 .cfa: $rsp 8 + .ra: .cfa -8 + ^
STACK CFI INIT 12230 29 .cfa: $rsp 8 + .ra: .cfa -8 + ^
STACK CFI 12231 .cfa: $rsp 16 +
STACK CFI INIT 12260 24 .cfa: $rsp 8 + .ra: .cfa -8 + ^
STACK CFI 12261 .cfa: $rsp 16 +
STACK CFI INIT 12290 24 .cfa: $rsp 8 + .ra: .cfa -8 + ^
STACK CFI 12291 .cfa: $rsp 16 +
STACK CFI INIT 122c0 24 .cfa: $rsp 8 + .ra: .cfa -8 + ^
STACK CFI 122c1 .cfa: $rsp 16 +
STACK CFI INIT 122f0 24 .cfa: $rsp 8 + .ra: .cfa -8 + ^
STACK CFI 122f1 .cfa: $rsp 16 +
STACK CFI INIT 12320 24 .cfa: $rsp 8 + .ra: .cfa -8 + ^
STACK CFI 12321 .cfa: $rsp 16 +
STACK CFI INIT 12350 24 .cfa: $rsp 8 + .ra: .cfa -8 + ^
STACK CFI 12351 .cfa: $rsp 16 +
STACK CFI INIT 12380 8f .cfa: $rsp 8 + .ra: .cfa -8 + ^
STACK CFI 12381 .cfa: $rsp 16 +
STACK CFI 12385 $rbx: .cfa -16 + ^ .cfa: $rsp 64 +
STACK CFI INIT 12410 24 .cfa: $rsp 8 + .ra: .cfa -8 + ^
STACK CFI 12411 .cfa: $rsp 16 +
STACK CFI INIT 12440 24 .cfa: $rsp 8 + .ra: .cfa -8 + ^
STACK CFI 12441 .cfa: $rsp 16 +
STACK CFI INIT 12470 95 .cfa: $rsp 8 + .ra: .cfa -8 + ^
STACK CFI 12471 .cfa: $rsp 16 +
STACK CFI 12475 $rbx: .cfa -16 + ^ .cfa: $rsp 64 +
STACK CFI INIT 12510 3c .cfa: $rsp 8 + .ra: .cfa -8 + ^
STACK CFI 12511 .cfa: $rsp 16 +
STACK CFI INIT 12550 2a .cfa: $rsp 8 + .ra: .cfa -8 + ^
STACK CFI 12551 .cfa: $rsp 16 +
STACK CFI INIT 12580 3a .cfa: $rsp 8 + .ra: .cfa -8 + ^
STACK CFI 12581 .cfa: $rsp 16 +
STACK CFI INIT 125c0 d5 .cfa: $rsp 8 + .ra: .cfa -8 + ^
STACK CFI 125c1 .cfa: $rsp 16 +
STACK CFI 125c3 .cfa: $rsp 24 +
STACK CFI 125c5 .cfa: $rsp 32 +
STACK CFI 125c7 .cfa: $rsp 40 +
STACK CFI 125c9 .cfa: $rsp 48 +
STACK CFI 125ca .cfa: $rsp 56 +
STACK CFI 125ce $r12: .cfa -48 + ^ $r13: .cfa -40 + ^ $r14: .cfa -32 + ^ $r15: .cfa -24 + ^ $rbp: .cfa -16 + ^ $rbx: .cfa -56 + ^ .cfa: $rsp 80 +
STACK CFI 1261e .cfa: $rsp 88 +
STACK CFI 12633 .cfa: $rsp 96 +
STACK CFI 12635 .cfa: $rsp 104 +
STACK CFI 12637 .cfa: $rsp 112 +
STACK CFI 12639 .cfa: $rsp 120 +
STACK CFI 1263a .cfa: $rsp 128 +
STACK CFI 1263c .cfa: $rsp 136 +
STACK CFI 12642 .cfa: $rsp 144 +
STACK CFI 1264b .cfa: $rsp 80 +
STACK CFI INIT 126a0 f5 .cfa: $rsp 8 + .ra: .cfa -8 + ^
STACK CFI 126a1 .cfa: $rsp 16 +
STACK CFI 126a3 .cfa: $rsp 24 +
STACK CFI 126a5 .cfa: $rsp 32 +
STACK CFI 126a7 .cfa: $rsp 40 +
STACK CFI 126a9 .cfa: $rsp 48 +
STACK CFI 126aa .cfa: $rsp 56 +
STACK CFI 126ae $r12: .cfa -48 + ^ $r13: .cfa -40 + ^ $r14: .cfa -32 + ^ $r15: .cfa -24 + ^ $rbp: .cfa -16 + ^ $rbx: .cfa -56 + ^ .cfa: $rsp 112 +
STACK CFI 1270b .cfa: $rsp 120 +
STACK CFI 12720 .cfa: $rsp 128 +
STACK CFI 12722 .cfa: $rsp 136 +
STACK CFI 12724 .cfa: $rsp 144 +
STACK CFI 12726 .cfa: $rsp 152 +
STACK CFI 12727 .cfa: $rsp 160 +
STACK CFI 12729 .cfa: $rsp 168 +
STACK CFI 1272f .cfa: $rsp 176 +
STACK CFI 12738 .cfa: $rsp 112 +
STACK CFI INIT 127a0 59 .cfa: $rsp 8 + .ra: .cfa -8 + ^
STACK CFI 127a1 .cfa: $rsp 16 +
STACK CFI 127a5 $rbx: .cfa -16 + ^ .cfa: $rsp 32 +
STACK CFI INIT 12800 97 .cfa: $rsp 8 + .ra: .cfa -8 + ^
STACK CFI 12801 .cfa: $rsp 16 +
STACK CFI 12803 .cfa: $rsp 24 +
STACK CFI 12805 .cfa: $rsp 32 +
STACK CFI 12807 .cfa: $rsp 40 +
STACK CFI 12809 .cfa: $rsp 48 +
STACK CFI 1280a .cfa: $rsp 56 +
STACK CFI 1280b $r12: .cfa -48 + ^ $r13: .cfa -40 + ^ $r14: .cfa -32 + ^ $r15: .cfa -24 + ^ $rbp: .cfa -16 + ^ $rbx: .cfa -56 + ^ .cfa: $rsp 64 +
STACK CFI 12850 .cfa: $rsp 72 +
STACK CFI 1285d .cfa: $rsp 80 +
STACK CFI 1285e .cfa: $rsp 88 +
STACK CFI 12860 .cfa: $rsp 96 +
STACK CFI 12862 .cfa: $rsp 104 +
STACK CFI 12864 .cfa: $rsp 112 +
STACK CFI 12866 .cfa: $rsp 120 +
STACK CFI 12868 .cfa: $rsp 128 +
STACK CFI 12871 .cfa: $rsp 64 +
STACK CFI INIT 128a0 2b .cfa: $rsp 8 + .ra: .cfa -8 + ^
STACK CFI 128a1 .cfa: $rsp 16 +
STACK CFI INIT 128d0 45 .cfa: $rsp 8 + .ra: .cfa -8 + ^
STACK CFI 128d1 .cfa: $rsp 16 +
STACK CFI 128d5 $rbx: .cfa -16 + ^ .cfa: $rsp 32 +
STACK CFI INIT 12920 f6 .cfa: $rsp 8 + .ra: .cfa -8 + ^
STACK CFI 12922 .cfa: $rsp 16 +
STACK CFI 12924 .cfa: $rsp 24 +
STACK CFI 12925 .cfa: $rsp 32 +
STACK CFI 1292c $r14: .cfa -24 + ^ $r15: .cfa -16 + ^ $rbx: .cfa -32 + ^ .cfa: $rsp 448 +
STACK CFI INIT 12a20 22b .cfa: $rsp 8 + .ra: .cfa -8 + ^
STACK CFI 12a22 .cfa: $rsp 16 +
STACK CFI 12a24 .cfa: $rsp 24 +
STACK CFI 12a26 .cfa: $rsp 32 +
STACK CFI 12a27 .cfa: $rsp 40 +
STACK CFI 12a2e $r12: .cfa -32 + ^ $r14: .cfa -24 + ^ $r15: .cfa -16 + ^ $rbx: .cfa -40 + ^ .cfa: $rsp 496 +
STACK CFI INIT 12c50 98 .cfa: $rsp 8 + .ra: .cfa -8 + ^
STACK CFI 12c52 .cfa: $rsp 16 +
STACK CFI 12c53 .cfa: $rsp 24 +
STACK CFI 12c5a $r14: .cfa -16 + ^ $rbx: .cfa -24 + ^ .cfa: $rsp 448 +
STACK CFI INIT 12cf0 96 .cfa: $rsp 8 + .ra: .cfa -8 + ^
STACK CFI 12cf1 .cfa: $rsp 16 +
STACK CFI 12cf3 .cfa: $rsp 24 +
STACK CFI 12cf4 .cfa: $rsp 32 +
STACK CFI 12cf8 $r14: .cfa -24 + ^ $rbp: .cfa -16 + ^ $rbx: .cfa -32 + ^ .cfa: $rsp 48 +
STACK CFI INIT 12d90 96 .cfa: $rsp 8 + .ra: .cfa -8 + ^
STACK CFI 12d91 .cfa: $rsp 16 +
STACK CFI 12d93 .cfa: $rsp 24 +
STACK CFI 12d94 .cfa: $rsp 32 +
STACK CFI 12d98 $r14: .cfa -24 + ^ $rbp: .cfa -16 + ^ $rbx: .cfa -32 + ^ .cfa: $rsp 48 +
STACK CFI INIT 12e30 5e .cfa: $rsp 8 + .ra: .cfa -8 + ^
STACK CFI 12e31 .cfa: $rsp 16 +
STACK CFI 12e35 $rbx: .cfa -16 + ^ .cfa: $rsp 32 +
STACK CFI INIT 12e90 90 .cfa: $rsp 8 + .ra: .cfa -8 + ^
STACK CFI 12e91 .cfa: $rsp 16 +
STACK CFI 12e93 .cfa: $rsp 24 +
STACK CFI 12e94 .cfa: $rsp 32 +
STACK CFI 12e98 $r14: .cfa -24 + ^ $rbp: .cfa -16 + ^ $rbx: .cfa -32 + ^ .cfa: $rsp 48 +
STACK CFI INIT 12f20 90 .cfa: $rsp 8 + .ra: .cfa -8 + ^
STACK CFI 12f21 .cfa: $rsp 16 +
STACK CFI 12f23 .cfa: $rsp 24 +
STACK CFI 12f24 .cfa: $rsp 32 +
STACK CFI 12f28 $r14: .cfa -24 + ^ $rbp: .cfa -16 + ^ $rbx: .cfa -32 + ^ .cfa: $rsp 48 +
STACK CFI INIT 12fb0 c8 .cfa: $rsp 8 + .ra: .cfa -8 + ^
STACK CFI 12fb1 .cfa: $rsp 16 +
STACK CFI 12fb3 .cfa: $rsp 24 +
STACK CFI 12fb4 .cfa: $rsp 32 +
STACK CFI 12fbb $r14: .cfa -24 + ^ $rbp: .cfa -16 + ^ $rbx: .cfa -32 + ^ .cfa: $rsp 448 +
STACK CFI INIT 13080 fc .cfa: $rsp 8 + .ra: .cfa -8 + ^
STACK CFI 13081 .cfa: $rsp 16 +
STACK CFI 13083 .cfa: $rsp 24 +
STACK CFI 13085 .cfa: $rsp 32 +
STACK CFI 13086 .cfa: $rsp 40 +
STACK CFI 1308d $r14: .cfa -32 + ^ $r15: .cfa -24 + ^ $rbp: .cfa -16 + ^ $rbx: .cfa -40 + ^ .cfa: $rsp 464 +
STACK CFI INIT 13180 2c7 .cfa: $rsp 8 + .ra: .cfa -8 + ^
STACK CFI 13181 .cfa: $rsp 16 +
STACK CFI 13183 .cfa: $rsp 24 +
STACK CFI 13185 .cfa: $rsp 32 +
STACK CFI 13186 .cfa: $rsp 40 +
STACK CFI 1318d $r14: .cfa -32 + ^ $r15: .cfa -24 + ^ $rbp: .cfa -16 + ^ $rbx: .cfa -40 + ^ .cfa: $rsp 496 +
STACK CFI INIT 13450 fc .cfa: $rsp 8 + .ra: .cfa -8 + ^
STACK CFI 13451 .cfa: $rsp 16 +
STACK CFI 13453 .cfa: $rsp 24 +
STACK CFI 13455 .cfa: $rsp 32 +
STACK CFI 13456 .cfa: $rsp 40 +
STACK CFI 1345d $r14: .cfa -32 + ^ $r15: .cfa -24 + ^ $rbp: .cfa -16 + ^ $rbx: .cfa -40 + ^ .cfa: $rsp 464 +
STACK CFI INIT 13550 d3 .cfa: $rsp 8 + .ra: .cfa -8 + ^
STACK CFI 13551 .cfa: $rsp 16 +
STACK CFI 13552 .cfa: $rsp 24 +
STACK CFI 13559 $rbp: .cfa -16 + ^ $rbx: .cfa -24 + ^ .cfa: $rsp 448 +
STACK CFI INIT 13630 9d .cfa: $rsp 8 + .ra: .cfa -8 + ^
STACK CFI 13632 .cfa: $rsp 16 +
STACK CFI 13633 .cfa: $rsp 24 +
STACK CFI 1363a $r14: .cfa -16 + ^ $rbx: .cfa -24 + ^ .cfa: $rsp 448 +
STACK CFI INIT 136d0 98 .cfa: $rsp 8 + .ra: .cfa -8 + ^
STACK CFI 136d2 .cfa: $rsp 16 +
STACK CFI 136d3 .cfa: $rsp 24 +
STACK CFI 136da $r14: .cfa -16 + ^ $rbx: .cfa -24 + ^ .cfa: $rsp 448 +
STACK CFI INIT 13770 c0 .cfa: $rsp 8 + .ra: .cfa -8 + ^
STACK CFI 13771 .cfa: $rsp 16 +
STACK CFI 13778 $rbx: .cfa -16 + ^ .cfa: $rsp 432 +
STACK CFI INIT 13830 a2 .cfa: $rsp 8 + .ra: .cfa -8 + ^
STACK CFI 13831 .cfa: $rsp 16 +
STACK CFI 13838 $rbx: .cfa -16 + ^ .cfa: $rsp 432 +
STACK CFI INIT 138e0 be .cfa: $rsp 8 + .ra: .cfa -8 + ^
STACK CFI 138e1 .cfa: $rsp 16 +
STACK CFI 138e8 $rbx: .cfa -16 + ^ .cfa: $rsp 576 +
STACK CFI INIT 139a0 2f .cfa: $rsp 8 + .ra: .cfa -8 + ^
STACK CFI 139a1 .cfa: $rsp 16 +
STACK CFI INIT 139d0 d9 .cfa: $rsp 8 + .ra: .cfa -8 + ^
STACK CFI 139d2 .cfa: $rsp 16 +
STACK CFI 139d3 .cfa: $rsp 24 +
STACK CFI 139da $r14: .cfa -16 + ^ $rbx: .cfa -24 + ^ .cfa: $rsp 592 +
STACK CFI INIT 13ab0 131 .cfa: $rsp 8 + .ra: .cfa -8 + ^
STACK CFI 13ab1 .cfa: $rsp 16 +
STACK CFI 13ab3 .cfa: $rsp 24 +
STACK CFI 13ab4 .cfa: $rsp 32 +
STACK CFI 13abb $r14: .cfa -24 + ^ $rbp: .cfa -16 + ^ $rbx: .cfa -32 + ^ .cfa: $rsp 448 +
STACK CFI INIT 13bf0 150 .cfa: $rsp 8 + .ra: .cfa -8 + ^
STACK CFI 13bf2 .cfa: $rsp 16 +
STACK CFI 13bf3 .cfa: $rsp 24 +
STACK CFI 13bfa $r14: .cfa -16 + ^ $rbx: .cfa -24 + ^ .cfa: $rsp 592 +
STACK CFI INIT 13d40 143 .cfa: $rsp 8 + .ra: .cfa -8 + ^
STACK CFI 13d42 .cfa: $rsp 16 +
STACK CFI 13d44 .cfa: $rsp 24 +
STACK CFI 13d45 .cfa: $rsp 32 +
STACK CFI 13d4c $r14: .cfa -24 + ^ $r15: .cfa -16 + ^ $rbx: .cfa -32 + ^ .cfa: $rsp 448 +
STACK CFI INIT 13e90 fc .cfa: $rsp 8 + .ra: .cfa -8 + ^
STACK CFI 13e92 .cfa: $rsp 16 +
STACK CFI 13e93 .cfa: $rsp 24 +
STACK CFI 13e9a $r14: .cfa -16 + ^ $rbx: .cfa -24 + ^ .cfa: $rsp 592 +
STACK CFI INIT 13f90 bd .cfa: $rsp 8 + .ra: .cfa -8 + ^
STACK CFI 13f92 .cfa: $rsp 16 +
STACK CFI 13f93 .cfa: $rsp 24 +
STACK CFI 13f9a $r14: .cfa -16 + ^ $rbx: .cfa -24 + ^ .cfa: $rsp 448 +
STACK CFI INIT 14050 bd .cfa: $rsp 8 + .ra: .cfa -8 + ^
STACK CFI 14052 .cfa: $rsp 16 +
STACK CFI 14053 .cfa: $rsp 24 +
STACK CFI 1405a $r14: .cfa -16 + ^ $rbx: .cfa -24 + ^ .cfa: $rsp 448 +
STACK CFI INIT 14110 a1 .cfa: $rsp 8 + .ra: .cfa -8 + ^
STACK CFI 14111 .cfa: $rsp 16 +
STACK CFI 14118 $rbx: .cfa -16 + ^ .cfa: $rsp 432 +
STACK CFI INIT 141c0 37 .cfa: $rsp 8 + .ra: .cfa -8 + ^
STACK CFI 141c1 .cfa: $rsp 16 +
STACK CFI INIT 14200 ef .cfa: $rsp 8 + .ra: .cfa -8 + ^
STACK CFI 14201 .cfa: $rsp 16 +
STACK CFI 14203 .cfa: $rsp 24 +
STACK CFI 14205 .cfa: $rsp 32 +
STACK CFI 14206 .cfa: $rsp 40 +
STACK CFI 1420d $r14: .cfa -32 + ^ $r15: .cfa -24 + ^ $rbp: .cfa -16 + ^ $rbx: .cfa -40 + ^ .cfa: $rsp 608 +
STACK CFI INIT 142f0 6a .cfa: $rsp 8 + .ra: .cfa -8 + ^
STACK CFI 142f1 .cfa: $rsp 16 +
STACK CFI 142f8 $rbx: .cfa -16 + ^ .cfa: $rsp 176 +
STACK CFI INIT 14360 9a .cfa: $rsp 8 + .ra: .cfa -8 + ^
STACK CFI 14361 .cfa: $rsp 16 +
STACK CFI 14363 .cfa: $rsp 24 +
STACK CFI 14365 .cfa: $rsp 32 +
STACK CFI 14367 .cfa: $rsp 40 +
STACK CFI 14368 .cfa: $rsp 48 +
STACK CFI 1436c $r12: .cfa -40 + ^ $r14: .cfa -32 + ^ $r15: .cfa -24 + ^ $rbp: .cfa -16 + ^ $rbx: .cfa -48 + ^ .cfa: $rsp 64 +
STACK CFI INIT 14400 164 .cfa: $rsp 8 + .ra: .cfa -8 + ^
STACK CFI 14401 .cfa: $rsp 16 +
STACK CFI 14403 .cfa: $rsp 24 +
STACK CFI 14405 .cfa: $rsp 32 +
STACK CFI 14407 .cfa: $rsp 40 +
STACK CFI 14409 .cfa: $rsp 48 +
STACK CFI 1440a .cfa: $rsp 56 +
STACK CFI 1440e $r12: .cfa -48 + ^ $r13: .cfa -40 + ^ $r14: .cfa -32 + ^ $r15: .cfa -24 + ^ $rbp: .cfa -16 + ^ $rbx: .cfa -56 + ^ .cfa: $rsp 80 +
STACK CFI INIT 14570 36d .cfa: $rsp 8 + .ra: .cfa -8 + ^
STACK CFI 14571 .cfa: $rsp 16 +
STACK CFI 14573 .cfa: $rsp 24 +
STACK CFI 14575 .cfa: $rsp 32 +
STACK CFI 14577 .cfa: $rsp 40 +
STACK CFI 14579 .cfa: $rsp 48 +
STACK CFI 1457a .cfa: $rsp 56 +
STACK CFI 1457e $r12: .cfa -48 + ^ $r13: .cfa -40 + ^ $r14: .cfa -32 + ^ $r15: .cfa -24 + ^ $rbp: .cfa -16 + ^ $rbx: .cfa -56 + ^ .cfa: $rsp 80 +
STACK CFI INIT 148e0 49 .cfa: $rsp 8 + .ra: .cfa -8 + ^
STACK CFI 148e1 .cfa: $rsp 16 +
STACK CFI INIT 14930 c9 .cfa: $rsp 8 + .ra: .cfa -8 + ^
STACK CFI 14931 .cfa: $rsp 16 +
STACK CFI 14933 .cfa: $rsp 24 +
STACK CFI 14934 .cfa: $rsp 32 +
STACK CFI 1493b $r14: .cfa -24 + ^ $rbp: .cfa -16 + ^ $rbx: .cfa -32 + ^ .cfa: $rsp 192 +
STACK CFI INIT 14a00 4b .cfa: $rsp 8 + .ra: .cfa -8 + ^
STACK CFI 14a01 .cfa: $rsp 16 +
STACK CFI INIT 14a50 4b .cfa: $rsp 8 + .ra: .cfa -8 + ^
STACK CFI 14a51 .cfa: $rsp 16 +
STACK CFI INIT 14aa0 a4f .cfa: $rsp 8 + .ra: .cfa -8 + ^
STACK CFI 14aa1 .cfa: $rsp 16 +
STACK CFI 14aa3 .cfa: $rsp 24 +
STACK CFI 14aa5 .cfa: $rsp 32 +
STACK CFI 14aa7 .cfa: $rsp 40 +
STACK CFI 14aa9 .cfa: $rsp 48 +
STACK CFI 14aaa .cfa: $rsp 56 +
STACK CFI 14ab1 $r12: .cfa -48 + ^ $r13: .cfa -40 + ^ $r14: .cfa -32 + ^ $r15: .cfa -24 + ^ $rbp: .cfa -16 + ^ $rbx: .cfa -56 + ^ .cfa: $rsp 560 +
STACK CFI INIT 154f0 34 .cfa: $rsp 8 + .ra: .cfa -8 + ^
STACK CFI 154f1 .cfa: $rsp 16 +
STACK CFI INIT 15530 24 .cfa: $rsp 8 + .ra: .cfa -8 + ^
STACK CFI 15531 .cfa: $rsp 16 +
STACK CFI INIT 15560 8a .cfa: $rsp 8 + .ra: .cfa -8 + ^
STACK CFI 15562 .cfa: $rsp 16 +
STACK CFI 15564 .cfa: $rsp 24 +
STACK CFI 15566 .cfa: $rsp 32 +
STACK CFI 15567 .cfa: $rsp 40 +
STACK CFI 1556b $r12: .cfa -32 + ^ $r14: .cfa -24 + ^ $r15: .cfa -16 + ^ $rbx: .cfa -40 + ^ .cfa: $rsp 96 +
STACK CFI INIT 155f0 ba .cfa: $rsp 8 + .ra: .cfa -8 + ^
STACK CFI 155f2 .cfa: $rsp 16 +
STACK CFI 155f4 .cfa: $rsp 24 +
STACK CFI 155f6 .cfa: $rsp 32 +
STACK CFI 155f7 .cfa: $rsp 40 +
STACK CFI 155fb $r12: .cfa -32 + ^ $r14: .cfa -24 + ^ $r15: .cfa -16 + ^ $rbx: .cfa -40 + ^ .cfa: $rsp 96 +
STACK CFI INIT 156b0 1f4 .cfa: $rsp 8 + .ra: .cfa -8 + ^
STACK CFI 156b1 .cfa: $rsp 16 +
STACK CFI 156b3 .cfa: $rsp 24 +
STACK CFI 156b5 .cfa: $rsp 32 +
STACK CFI 156b7 .cfa: $rsp 40 +
STACK CFI 156b8 .cfa: $rsp 48 +
STACK CFI 156bf $r12: .cfa -40 + ^ $r14: .cfa -32 + ^ $r15: .cfa -24 + ^ $rbp: .cfa -16 + ^ $rbx: .cfa -48 + ^ .cfa: $rsp 224 +
STACK CFI INIT 158b0 83 .cfa: $rsp 8 + .ra: .cfa -8 + ^
STACK CFI 158b2 .cfa: $rsp 16 +
STACK CFI 158b4 .cfa: $rsp 24 +
STACK CFI 158b6 .cfa: $rsp 32 +
STACK CFI 158b7 .cfa: $rsp 40 +
STACK CFI 158bb $r12: .cfa -32 + ^ $r14: .cfa -24 + ^ $r15: .cfa -16 + ^ $rbx: .cfa -40 + ^ .cfa: $rsp 96 +
STACK CFI INIT 15940 202 .cfa: $rsp 8 + .ra: .cfa -8 + ^
STACK CFI 15941 .cfa: $rsp 16 +
STACK CFI 15943 .cfa: $rsp 24 +
STACK CFI 15945 .cfa: $rsp 32 +
STACK CFI 15947 .cfa: $rsp 40 +
STACK CFI 15949 .cfa: $rsp 48 +
STACK CFI 1594a .cfa: $rsp 56 +
STACK CFI 1594e $r12: .cfa -48 + ^ $r13: .cfa -40 + ^ $r14: .cfa -32 + ^ $r15: .cfa -24 + ^ $rbp: .cfa -16 + ^ $rbx: .cfa -56 + ^ .cfa: $rsp 160 +
STACK CFI INIT 15b50 74 .cfa: $rsp 8 + .ra: .cfa -8 + ^
STACK CFI 15b51 .cfa: $rsp 16 +
STACK CFI 15b55 $rbx: .cfa -16 + ^ .cfa: $rsp 32 +
STACK CFI INIT 15bd0 28 .cfa: $rsp 8 + .ra: .cfa -8 + ^
STACK CFI 15bd1 .cfa: $rsp 16 +
STACK CFI INIT 15c00 32 .cfa: $rsp 8 + .ra: .cfa -8 + ^
STACK CFI 15c01 .cfa: $rsp 16 +
STACK CFI INIT 15c40 3c .cfa: $rsp 8 + .ra: .cfa -8 + ^
STACK CFI 15c41 .cfa: $rsp 16 +
STACK CFI INIT 15c80 361 .cfa: $rsp 8 + .ra: .cfa -8 + ^
STACK CFI 15c81 .cfa: $rsp 16 +
STACK CFI 15c83 .cfa: $rsp 24 +
STACK CFI 15c84 .cfa: $rsp 32 +
STACK CFI 15c88 $r14: .cfa -24 + ^ $rbp: .cfa -16 + ^ $rbx: .cfa -32 + ^ .cfa: $rsp 64 +
STACK CFI INIT 15ff0 68 .cfa: $rsp 8 + .ra: .cfa -8 + ^
STACK CFI 15ff1 .cfa: $rsp 16 +
STACK CFI 15ff5 $rbx: .cfa -16 + ^ .cfa: $rsp 32 +
STACK CFI INIT 16060 51 .cfa: $rsp 8 + .ra: .cfa -8 + ^
STACK CFI 16061 .cfa: $rsp 16 +
STACK CFI 16065 $rbx: .cfa -16 + ^ .cfa: $rsp 32 +
STACK CFI INIT 160c0 2f .cfa: $rsp 8 + .ra: .cfa -8 + ^
STACK CFI 160c1 .cfa: $rsp 16 +
STACK CFI INIT 160f0 6c .cfa: $rsp 8 + .ra: .cfa -8 + ^
STACK CFI 160f1 .cfa: $rsp 16 +
STACK CFI 160f3 .cfa: $rsp 24 +
STACK CFI 160f5 .cfa: $rsp 32 +
STACK CFI 160f6 .cfa: $rsp 40 +
STACK CFI 160f7 $r14: .cfa -32 + ^ $r15: .cfa -24 + ^ $rbp: .cfa -16 + ^ $rbx: .cfa -40 + ^ .cfa: $rsp 48 +
STACK CFI INIT 16160 4f1 .cfa: $rsp 8 + .ra: .cfa -8 + ^
STACK CFI 16161 .cfa: $rsp 16 +
STACK CFI 16163 .cfa: $rsp 24 +
STACK CFI 16165 .cfa: $rsp 32 +
STACK CFI 16167 .cfa: $rsp 40 +
STACK CFI 16169 .cfa: $rsp 48 +
STACK CFI 1616a .cfa: $rsp 56 +
STACK CFI 16171 $r12: .cfa -48 + ^ $r13: .cfa -40 + ^ $r14: .cfa -32 + ^ $r15: .cfa -24 + ^ $rbp: .cfa -16 + ^ $rbx: .cfa -56 + ^ .cfa: $rsp 848 +
STACK CFI INIT 16660 69 .cfa: $rsp 8 + .ra: .cfa -8 + ^
STACK CFI 16662 .cfa: $rsp 16 +
STACK CFI 16664 .cfa: $rsp 24 +
STACK CFI 16665 .cfa: $rsp 32 +
STACK CFI 16669 $r14: .cfa -24 + ^ $r15: .cfa -16 + ^ $rbx: .cfa -32 + ^ .cfa: $rsp 48 +
STACK CFI INIT 166d0 17a .cfa: $rsp 8 + .ra: .cfa -8 + ^
STACK CFI 166d1 .cfa: $rsp 16 +
STACK CFI 166d3 .cfa: $rsp 24 +
STACK CFI 166d5 .cfa: $rsp 32 +
STACK CFI 166d7 .cfa: $rsp 40 +
STACK CFI 166d8 .cfa: $rsp 48 +
STACK CFI 166df $r12: .cfa -40 + ^ $r14: .cfa -32 + ^ $r15: .cfa -24 + ^ $rbp: .cfa -16 + ^ $rbx: .cfa -48 + ^ .cfa: $rsp 4176 +
STACK CFI INIT 16850 11c .cfa: $rsp 8 + .ra: .cfa -8 + ^
STACK CFI 16851 .cfa: $rsp 16 +
STACK CFI 16853 .cfa: $rsp 24 +
STACK CFI 16855 .cfa: $rsp 32 +
STACK CFI 16857 .cfa: $rsp 40 +
STACK CFI 16858 .cfa: $rsp 48 +
STACK CFI 1685f $r12: .cfa -40 + ^ $r14: .cfa -32 + ^ $r15: .cfa -24 + ^ $rbp: .cfa -16 + ^ $rbx: .cfa -48 + ^ .cfa: $rsp 4176 +
STACK CFI INIT 16970 2df .cfa: $rsp 8 + .ra: .cfa -8 + ^
STACK CFI 16971 .cfa: $rsp 16 +
STACK CFI 16973 .cfa: $rsp 24 +
STACK CFI 16975 .cfa: $rsp 32 +
STACK CFI 16977 .cfa: $rsp 40 +
STACK CFI 16979 .cfa: $rsp 48 +
STACK CFI 1697a .cfa: $rsp 56 +
STACK CFI 16981 $r12: .cfa -48 + ^ $r13: .cfa -40 + ^ $r14: .cfa -32 + ^ $r15: .cfa -24 + ^ $rbp: .cfa -16 + ^ $rbx: .cfa -56 + ^ .cfa: $rsp 4192 +
STACK CFI INIT 16c50 123 .cfa: $rsp 8 + .ra: .cfa -8 + ^
STACK CFI 16c51 .cfa: $rsp 16 +
STACK CFI 16c53 .cfa: $rsp 24 +
STACK CFI 16c55 .cfa: $rsp 32 +
STACK CFI 16c57 .cfa: $rsp 40 +
STACK CFI 16c58 .cfa: $rsp 48 +
STACK CFI 16c5f $r12: .cfa -40 + ^ $r14: .cfa -32 + ^ $r15: .cfa -24 + ^ $rbp: .cfa -16 + ^ $rbx: .cfa -48 + ^ .cfa: $rsp 4176 +
STACK CFI INIT 16d80 51 .cfa: $rsp 8 + .ra: .cfa -8 + ^
STACK CFI 16d84 .cfa: $rsp 32 +
STACK CFI INIT 16de0 71 .cfa: $rsp 8 + .ra: .cfa -8 + ^
STACK CFI 16de1 .cfa: $rsp 16 +
STACK CFI 16de5 $rbx: .cfa -16 + ^ .cfa: $rsp 32 +
STACK CFI INIT 16e60 51 .cfa: $rsp 8 + .ra: .cfa -8 + ^
STACK CFI 16e64 .cfa: $rsp 32 +
STACK CFI INIT 16ec0 b6 .cfa: $rsp 8 + .ra: .cfa -8 + ^
STACK CFI 16ec1 .cfa: $rsp 16 +
STACK CFI 16ec3 .cfa: $rsp 24 +
STACK CFI 16ec4 .cfa: $rsp 32 +
STACK CFI 16ec8 $r14: .cfa -24 + ^ $rbp: .cfa -16 + ^ $rbx: .cfa -32 + ^ .cfa: $rsp 80 +
STACK CFI INIT 16f80 2b .cfa: $rsp 8 + .ra: .cfa -8 + ^
STACK CFI 16f81 .cfa: $rsp 16 +
STACK CFI INIT 16fb0 2a .cfa: $rsp 8 + .ra: .cfa -8 + ^
STACK CFI 16fb1 .cfa: $rsp 16 +
STACK CFI INIT 16fe0 24 .cfa: $rsp 8 + .ra: .cfa -8 + ^
STACK CFI 16fe1 .cfa: $rsp 16 +
STACK CFI INIT 17010 1bc .cfa: $rsp 8 + .ra: .cfa -8 + ^
STACK CFI 17011 .cfa: $rsp 16 +
STACK CFI 17013 .cfa: $rsp 24 +
STACK CFI 17015 .cfa: $rsp 32 +
STACK CFI 17016 .cfa: $rsp 40 +
STACK CFI 1701d $r14: .cfa -32 + ^ $r15: .cfa -24 + ^ $rbp: .cfa -16 + ^ $rbx: .cfa -40 + ^ .cfa: $rsp 688 +
STACK CFI INIT 171d0 2a .cfa: $rsp 8 + .ra: .cfa -8 + ^
STACK CFI 171d1 .cfa: $rsp 16 +
STACK CFI INIT 17200 4cf .cfa: $rsp 8 + .ra: .cfa -8 + ^
STACK CFI 17201 .cfa: $rsp 16 +
STACK CFI 17203 .cfa: $rsp 24 +
STACK CFI 17205 .cfa: $rsp 32 +
STACK CFI 17207 .cfa: $rsp 40 +
STACK CFI 17208 .cfa: $rsp 48 +
STACK CFI 1720f $r12: .cfa -40 + ^ $r14: .cfa -32 + ^ $r15: .cfa -24 + ^ $rbp: .cfa -16 + ^ $rbx: .cfa -48 + ^ .cfa: $rsp 480 +
STACK CFI INIT 176d0 258 .cfa: $rsp 8 + .ra: .cfa -8 + ^
STACK CFI 176d1 .cfa: $rsp 16 +
STACK CFI 176d3 .cfa: $rsp 24 +
STACK CFI 176d5 .cfa: $rsp 32 +
STACK CFI 176d7 .cfa: $rsp 40 +
STACK CFI 176d9 .cfa: $rsp 48 +
STACK CFI 176da .cfa: $rsp 56 +
STACK CFI 176e1 $r12: .cfa -48 + ^ $r13: .cfa -40 + ^ $r14: .cfa -32 + ^ $r15: .cfa -24 + ^ $rbp: .cfa -16 + ^ $rbx: .cfa -56 + ^ .cfa: $rsp 512 +
STACK CFI INIT 17930 16b .cfa: $rsp 8 + .ra: .cfa -8 + ^
STACK CFI 17931 .cfa: $rsp 16 +
STACK CFI 17933 .cfa: $rsp 24 +
STACK CFI 17935 .cfa: $rsp 32 +
STACK CFI 17937 .cfa: $rsp 40 +
STACK CFI 17939 .cfa: $rsp 48 +
STACK CFI 1793a .cfa: $rsp 56 +
STACK CFI 17941 $r12: .cfa -48 + ^ $r13: .cfa -40 + ^ $r14: .cfa -32 + ^ $r15: .cfa -24 + ^ $rbp: .cfa -16 + ^ $rbx: .cfa -56 + ^ .cfa: $rsp 496 +
STACK CFI INIT 17aa0 128 .cfa: $rsp 8 + .ra: .cfa -8 + ^
STACK CFI 17aa2 .cfa: $rsp 16 +
STACK CFI 17aa3 .cfa: $rsp 24 +
STACK CFI 17aaa $r14: .cfa -16 + ^ $rbx: .cfa -24 + ^ .cfa: $rsp 448 +
STACK CFI INIT 17bd0 c4 .cfa: $rsp 8 + .ra: .cfa -8 + ^
STACK CFI 17bd1 .cfa: $rsp 16 +
STACK CFI 17bd8 $rbx: .cfa -16 + ^ .cfa: $rsp 432 +
STACK CFI INIT 17ca0 b7 .cfa: $rsp 8 + .ra: .cfa -8 + ^
STACK CFI 17ca1 .cfa: $rsp 16 +
STACK CFI 17ca2 .cfa: $rsp 24 +
STACK CFI 17ca9 $rbp: .cfa -16 + ^ $rbx: .cfa -24 + ^ .cfa: $rsp 448 +
STACK CFI INIT 17d60 a9 .cfa: $rsp 8 + .ra: .cfa -8 + ^
STACK CFI 17d61 .cfa: $rsp 16 +
STACK CFI 17d68 $rbx: .cfa -16 + ^ .cfa: $rsp 432 +
STACK CFI INIT 17e10 2a .cfa: $rsp 8 + .ra: .cfa -8 + ^
STACK CFI 17e11 .cfa: $rsp 16 +
STACK CFI INIT 17e40 bb .cfa: $rsp 8 + .ra: .cfa -8 + ^
STACK CFI 17e41 .cfa: $rsp 16 +
STACK CFI 17e48 $rbx: .cfa -16 + ^ .cfa: $rsp 432 +
STACK CFI INIT 17f00 bf .cfa: $rsp 8 + .ra: .cfa -8 + ^
STACK CFI 17f01 .cfa: $rsp 16 +
STACK CFI 17f08 $rbx: .cfa -16 + ^ .cfa: $rsp 432 +
STACK CFI INIT 17fc0 1f3 .cfa: $rsp 8 + .ra: .cfa -8 + ^
STACK CFI 17fc1 .cfa: $rsp 16 +
STACK CFI 17fc3 .cfa: $rsp 24 +
STACK CFI 17fc4 .cfa: $rsp 32 +
STACK CFI 17fcb $r14: .cfa -24 + ^ $rbp: .cfa -16 + ^ $rbx: .cfa -32 + ^ .cfa: $rsp 464 +
STACK CFI INIT 181c0 1b3 .cfa: $rsp 8 + .ra: .cfa -8 + ^
STACK CFI 181c1 .cfa: $rsp 16 +
STACK CFI 181c3 .cfa: $rsp 24 +
STACK CFI 181c5 .cfa: $rsp 32 +
STACK CFI 181c6 .cfa: $rsp 40 +
STACK CFI 181cd $r14: .cfa -32 + ^ $r15: .cfa -24 + ^ $rbp: .cfa -16 + ^ $rbx: .cfa -40 + ^ .cfa: $rsp 480 +
STACK CFI INIT 18380 10e .cfa: $rsp 8 + .ra: .cfa -8 + ^
STACK CFI 18381 .cfa: $rsp 16 +
STACK CFI 18382 .cfa: $rsp 24 +
STACK CFI 18386 $rbp: .cfa -16 + ^ $rbx: .cfa -24 + ^ .cfa: $rsp 144 +
STACK CFI INIT 18490 5d9 .cfa: $rsp 8 + .ra: .cfa -8 + ^
STACK CFI 18491 .cfa: $rsp 16 +
STACK CFI 18493 .cfa: $rsp 24 +
STACK CFI 18495 .cfa: $rsp 32 +
STACK CFI 18497 .cfa: $rsp 40 +
STACK CFI 18499 .cfa: $rsp 48 +
STACK CFI 1849a .cfa: $rsp 56 +
STACK CFI 184a1 $r12: .cfa -48 + ^ $r13: .cfa -40 + ^ $r14: .cfa -32 + ^ $r15: .cfa -24 + ^ $rbp: .cfa -16 + ^ $rbx: .cfa -56 + ^ .cfa: $rsp 672 +
STACK CFI INIT 18a70 54e .cfa: $rsp 8 + .ra: .cfa -8 + ^
STACK CFI 18a71 .cfa: $rsp 16 +
STACK CFI 18a73 .cfa: $rsp 24 +
STACK CFI 18a75 .cfa: $rsp 32 +
STACK CFI 18a77 .cfa: $rsp 40 +
STACK CFI 18a79 .cfa: $rsp 48 +
STACK CFI 18a7a .cfa: $rsp 56 +
STACK CFI 18a7b $r12: .cfa -48 + ^ $r13: .cfa -40 + ^ $r14: .cfa -32 + ^ $r15: .cfa -24 + ^ $rbp: .cfa -16 + ^ $rbx: .cfa -56 + ^ .cfa: $rsp 64 +
STACK CFI INIT 18fc0 74 .cfa: $rsp 8 + .ra: .cfa -8 + ^
STACK CFI 18fc1 .cfa: $rsp 16 +
STACK CFI INIT 19040 24 .cfa: $rsp 8 + .ra: .cfa -8 + ^
STACK CFI 19041 .cfa: $rsp 16 +
STACK CFI INIT 19070 30 .cfa: $rsp 8 + .ra: .cfa -8 + ^
STACK CFI 19071 .cfa: $rsp 16 +
STACK CFI INIT 190a0 24 .cfa: $rsp 8 + .ra: .cfa -8 + ^
STACK CFI 190a1 .cfa: $rsp 16 +
STACK CFI INIT 190d0 30 .cfa: $rsp 8 + .ra: .cfa -8 + ^
STACK CFI 190d1 .cfa: $rsp 16 +
STACK CFI INIT 19100 24 .cfa: $rsp 8 + .ra: .cfa -8 + ^
STACK CFI 19101 .cfa: $rsp 16 +
STACK CFI INIT 19130 2a7 .cfa: $rsp 8 + .ra: .cfa -8 + ^
STACK CFI 19131 .cfa: $rsp 16 +
STACK CFI 19135 $rbx: .cfa -16 + ^ .cfa: $rsp 32 +
STACK CFI INIT 193e0 348 .cfa: $rsp 8 + .ra: .cfa -8 + ^
STACK CFI 193e1 .cfa: $rsp 16 +
STACK CFI 193e3 .cfa: $rsp 24 +
STACK CFI 193e5 .cfa: $rsp 32 +
STACK CFI 193e7 .cfa: $rsp 40 +
STACK CFI 193e9 .cfa: $rsp 48 +
STACK CFI 193ea .cfa: $rsp 56 +
STACK CFI 193f1 $r12: .cfa -48 + ^ $r13: .cfa -40 + ^ $r14: .cfa -32 + ^ $r15: .cfa -24 + ^ $rbp: .cfa -16 + ^ $rbx: .cfa -56 + ^ .cfa: $rsp 528 +
STACK CFI INIT 19730 37 .cfa: $rsp 8 + .ra: .cfa -8 + ^
STACK CFI 19731 .cfa: $rsp 16 +
STACK CFI INIT 19770 ae .cfa: $rsp 8 + .ra: .cfa -8 + ^
STACK CFI 19772 .cfa: $rsp 16 +
STACK CFI 19774 .cfa: $rsp 24 +
STACK CFI 19775 .cfa: $rsp 32 +
STACK CFI 19779 $r14: .cfa -24 + ^ $r15: .cfa -16 + ^ $rbx: .cfa -32 + ^ .cfa: $rsp 48 +
STACK CFI INIT 19820 f0 .cfa: $rsp 8 + .ra: .cfa -8 + ^
STACK CFI 19822 .cfa: $rsp 16 +
STACK CFI 19824 .cfa: $rsp 24 +
STACK CFI 19825 .cfa: $rsp 32 +
STACK CFI 19829 $r14: .cfa -24 + ^ $r15: .cfa -16 + ^ $rbx: .cfa -32 + ^ .cfa: $rsp 48 +
STACK CFI INIT 19910 49 .cfa: $rsp 8 + .ra: .cfa -8 + ^
STACK CFI 19911 .cfa: $rsp 16 +
STACK CFI INIT 19960 39 .cfa: $rsp 8 + .ra: .cfa -8 + ^
STACK CFI 19961 .cfa: $rsp 16 +
STACK CFI 19965 $rbx: .cfa -16 + ^ .cfa: $rsp 32 +
STACK CFI INIT 199a0 67 .cfa: $rsp 8 + .ra: .cfa -8 + ^
STACK CFI 199a1 .cfa: $rsp 16 +
STACK CFI INIT 19a10 56 .cfa: $rsp 8 + .ra: .cfa -8 + ^
STACK CFI 19a11 .cfa: $rsp 16 +
STACK CFI INIT 19a70 2b .cfa: $rsp 8 + .ra: .cfa -8 + ^
STACK CFI 19a71 .cfa: $rsp 16 +
STACK CFI INIT 19aa0 1b6 .cfa: $rsp 8 + .ra: .cfa -8 + ^
STACK CFI 19aa2 .cfa: $rsp 16 +
STACK CFI 19aa4 .cfa: $rsp 24 +
STACK CFI 19aa5 .cfa: $rsp 32 +
STACK CFI 19aa9 $r14: .cfa -24 + ^ $r15: .cfa -16 + ^ $rbx: .cfa -32 + ^ .cfa: $rsp 48 +
STACK CFI INIT 19c60 96 .cfa: $rsp 8 + .ra: .cfa -8 + ^
STACK CFI 19c62 .cfa: $rsp 16 +
STACK CFI 19c64 .cfa: $rsp 24 +
STACK CFI 19c65 .cfa: $rsp 32 +
STACK CFI 19c69 $r14: .cfa -24 + ^ $r15: .cfa -16 + ^ $rbx: .cfa -32 + ^ .cfa: $rsp 48 +
STACK CFI INIT 19d00 115 .cfa: $rsp 8 + .ra: .cfa -8 + ^
STACK CFI 19d02 .cfa: $rsp 16 +
STACK CFI 19d04 .cfa: $rsp 24 +
STACK CFI 19d05 .cfa: $rsp 32 +
STACK CFI 19d09 $r14: .cfa -24 + ^ $r15: .cfa -16 + ^ $rbx: .cfa -32 + ^ .cfa: $rsp 48 +
STACK CFI INIT 19e20 219 .cfa: $rsp 8 + .ra: .cfa -8 + ^
STACK CFI 19e22 .cfa: $rsp 16 +
STACK CFI 19e24 .cfa: $rsp 24 +
STACK CFI 19e26 .cfa: $rsp 32 +
STACK CFI 19e28 .cfa: $rsp 40 +
STACK CFI 19e29 .cfa: $rsp 48 +
STACK CFI 19e2d $r12: .cfa -40 + ^ $r13: .cfa -32 + ^ $r14: .cfa -24 + ^ $r15: .cfa -16 + ^ $rbx: .cfa -48 + ^ .cfa: $rsp 128 +
STACK CFI INIT 1a040 1de .cfa: $rsp 8 + .ra: .cfa -8 + ^
STACK CFI 1a042 .cfa: $rsp 16 +
STACK CFI 1a044 .cfa: $rsp 24 +
STACK CFI 1a046 .cfa: $rsp 32 +
STACK CFI 1a048 .cfa: $rsp 40 +
STACK CFI 1a049 .cfa: $rsp 48 +
STACK CFI 1a04d $r12: .cfa -40 + ^ $r13: .cfa -32 + ^ $r14: .cfa -24 + ^ $r15: .cfa -16 + ^ $rbx: .cfa -48 + ^ .cfa: $rsp 128 +
STACK CFI INIT 1a220 353 .cfa: $rsp 8 + .ra: .cfa -8 + ^
STACK CFI 1a221 .cfa: $rsp 16 +
STACK CFI 1a223 .cfa: $rsp 24 +
STACK CFI 1a225 .cfa: $rsp 32 +
STACK CFI 1a227 .cfa: $rsp 40 +
STACK CFI 1a229 .cfa: $rsp 48 +
STACK CFI 1a22a .cfa: $rsp 56 +
STACK CFI 1a22e $r12: .cfa -48 + ^ $r13: .cfa -40 + ^ $r14: .cfa -32 + ^ $r15: .cfa -24 + ^ $rbp: .cfa -16 + ^ $rbx: .cfa -56 + ^ .cfa: $rsp 144 +
STACK CFI INIT 1a580 39 .cfa: $rsp 8 + .ra: .cfa -8 + ^
STACK CFI 1a581 .cfa: $rsp 16 +
STACK CFI 1a585 $rbx: .cfa -16 + ^ .cfa: $rsp 32 +
STACK CFI INIT 1a5c0 45 .cfa: $rsp 8 + .ra: .cfa -8 + ^
STACK CFI 1a5c1 .cfa: $rsp 16 +
STACK CFI INIT 1a610 75 .cfa: $rsp 8 + .ra: .cfa -8 + ^
STACK CFI 1a612 .cfa: $rsp 16 +
STACK CFI 1a613 .cfa: $rsp 24 +
STACK CFI 1a614 $r14: .cfa -16 + ^ $rbx: .cfa -24 + ^ .cfa: $rsp 32 +
STACK CFI INIT 1a690 b0 .cfa: $rsp 8 + .ra: .cfa -8 + ^
STACK CFI 1a691 .cfa: $rsp 16 +
STACK CFI 1a698 $rbx: .cfa -16 + ^ .cfa: $rsp 432 +
STACK CFI INIT 1a740 93 .cfa: $rsp 8 + .ra: .cfa -8 + ^
STACK CFI 1a741 .cfa: $rsp 16 +
STACK CFI 1a748 $rbx: .cfa -16 + ^ .cfa: $rsp 432 +
STACK CFI INIT 1a7e0 2b .cfa: $rsp 8 + .ra: .cfa -8 + ^
STACK CFI 1a7e1 .cfa: $rsp 16 +
STACK CFI INIT 1a810 2b .cfa: $rsp 8 + .ra: .cfa -8 + ^
STACK CFI 1a811 .cfa: $rsp 16 +
STACK CFI INIT 1a840 164 .cfa: $rsp 8 + .ra: .cfa -8 + ^
STACK CFI 1a841 .cfa: $rsp 16 +
STACK CFI 1a843 .cfa: $rsp 24 +
STACK CFI 1a845 .cfa: $rsp 32 +
STACK CFI 1a847 .cfa: $rsp 40 +
STACK CFI 1a848 .cfa: $rsp 48 +
STACK CFI 1a84c $r12: .cfa -40 + ^ $r14: .cfa -32 + ^ $r15: .cfa -24 + ^ $rbp: .cfa -16 + ^ $rbx: .cfa -48 + ^ .cfa: $rsp 64 +
STACK CFI INIT 1a9b0 55f .cfa: $rsp 8 + .ra: .cfa -8 + ^
STACK CFI 1a9b2 .cfa: $rsp 16 +
STACK CFI 1a9b4 .cfa: $rsp 24 +
STACK CFI 1a9b6 .cfa: $rsp 32 +
STACK CFI 1a9b8 .cfa: $rsp 40 +
STACK CFI 1a9b9 .cfa: $rsp 48 +
STACK CFI 1a9c0 $r12: .cfa -40 + ^ $r13: .cfa -32 + ^ $r14: .cfa -24 + ^ $r15: .cfa -16 + ^ $rbx: .cfa -48 + ^ .cfa: $rsp 192 +
STACK CFI INIT 1af10 1b7 .cfa: $rsp 8 + .ra: .cfa -8 + ^
STACK CFI 1af11 .cfa: $rsp 16 +
STACK CFI 1af13 .cfa: $rsp 24 +
STACK CFI 1af15 .cfa: $rsp 32 +
STACK CFI 1af17 .cfa: $rsp 40 +
STACK CFI 1af18 .cfa: $rsp 48 +
STACK CFI 1af1c $r12: .cfa -40 + ^ $r14: .cfa -32 + ^ $r15: .cfa -24 + ^ $rbp: .cfa -16 + ^ $rbx: .cfa -48 + ^ .cfa: $rsp 64 +
STACK CFI INIT 1b0d0 17f .cfa: $rsp 8 + .ra: .cfa -8 + ^
STACK CFI 1b0d2 .cfa: $rsp 16 +
STACK CFI 1b0d3 .cfa: $rsp 24 +
STACK CFI 1b0d7 $r14: .cfa -16 + ^ $rbx: .cfa -24 + ^ .cfa: $rsp 64 +
STACK CFI INIT 1b250 16d .cfa: $rsp 8 + .ra: .cfa -8 + ^
STACK CFI 1b251 .cfa: $rsp 16 +
STACK CFI 1b253 .cfa: $rsp 24 +
STACK CFI 1b255 .cfa: $rsp 32 +
STACK CFI 1b257 .cfa: $rsp 40 +
STACK CFI 1b259 .cfa: $rsp 48 +
STACK CFI 1b25a .cfa: $rsp 56 +
STACK CFI 1b25b $r12: .cfa -48 + ^ $r13: .cfa -40 + ^ $r14: .cfa -32 + ^ $r15: .cfa -24 + ^ $rbp: .cfa -16 + ^ $rbx: .cfa -56 + ^ .cfa: $rsp 64 +
STACK CFI INIT 1b3c0 bb .cfa: $rsp 8 + .ra: .cfa -8 + ^
STACK CFI 1b3c2 .cfa: $rsp 16 +
STACK CFI 1b3c3 .cfa: $rsp 24 +
STACK CFI 1b3c7 $r14: .cfa -16 + ^ $rbx: .cfa -24 + ^ .cfa: $rsp 64 +
STACK CFI INIT 1b480 40 .cfa: $rsp 8 + .ra: .cfa -8 + ^
STACK CFI 1b484 .cfa: $rsp 32 +
STACK CFI INIT 1b4c0 19f .cfa: $rsp 8 + .ra: .cfa -8 + ^
STACK CFI 1b4c1 .cfa: $rsp 16 +
STACK CFI 1b4c3 .cfa: $rsp 24 +
STACK CFI 1b4c5 .cfa: $rsp 32 +
STACK CFI 1b4c6 .cfa: $rsp 40 +
STACK CFI 1b4cd $r14: .cfa -32 + ^ $r15: .cfa -24 + ^ $rbp: .cfa -16 + ^ $rbx: .cfa -40 + ^ .cfa: $rsp 464 +
STACK CFI INIT 1b660 91 .cfa: $rsp 8 + .ra: .cfa -8 + ^
STACK CFI 1b661 .cfa: $rsp 16 +
STACK CFI 1b663 .cfa: $rsp 24 +
STACK CFI 1b665 .cfa: $rsp 32 +
STACK CFI 1b666 .cfa: $rsp 40 +
STACK CFI 1b66a $r14: .cfa -32 + ^ $r15: .cfa -24 + ^ $rbp: .cfa -16 + ^ $rbx: .cfa -40 + ^ .cfa: $rsp 64 +
STACK CFI INIT 1b700 7d .cfa: $rsp 8 + .ra: .cfa -8 + ^
STACK CFI 1b702 .cfa: $rsp 16 +
STACK CFI 1b704 .cfa: $rsp 24 +
STACK CFI 1b705 .cfa: $rsp 32 +
STACK CFI 1b709 $r14: .cfa -24 + ^ $r15: .cfa -16 + ^ $rbx: .cfa -32 + ^ .cfa: $rsp 48 +
STACK CFI INIT 1b780 59 .cfa: $rsp 8 + .ra: .cfa -8 + ^
STACK CFI 1b784 .cfa: $rsp 32 +
STACK CFI INIT 1b7e0 bd .cfa: $rsp 8 + .ra: .cfa -8 + ^
STACK CFI 1b7e2 .cfa: $rsp 16 +
STACK CFI 1b7e4 .cfa: $rsp 24 +
STACK CFI 1b7e5 .cfa: $rsp 32 +
STACK CFI 1b7e9 $r14: .cfa -24 + ^ $r15: .cfa -16 + ^ $rbx: .cfa -32 + ^ .cfa: $rsp 80 +
STACK CFI INIT 1b8a0 1c7 .cfa: $rsp 8 + .ra: .cfa -8 + ^
STACK CFI 1b8a1 .cfa: $rsp 16 +
STACK CFI 1b8a3 .cfa: $rsp 24 +
STACK CFI 1b8a5 .cfa: $rsp 32 +
STACK CFI 1b8a7 .cfa: $rsp 40 +
STACK CFI 1b8a9 .cfa: $rsp 48 +
STACK CFI 1b8aa .cfa: $rsp 56 +
STACK CFI 1b8ab $r12: .cfa -48 + ^ $r13: .cfa -40 + ^ $r14: .cfa -32 + ^ $r15: .cfa -24 + ^ $rbp: .cfa -16 + ^ $rbx: .cfa -56 + ^ .cfa: $rsp 64 +
STACK CFI INIT 1ba70 1ac .cfa: $rsp 8 + .ra: .cfa -8 + ^
STACK CFI 1ba71 .cfa: $rsp 16 +
STACK CFI 1ba73 .cfa: $rsp 24 +
STACK CFI 1ba75 .cfa: $rsp 32 +
STACK CFI 1ba77 .cfa: $rsp 40 +
STACK CFI 1ba79 .cfa: $rsp 48 +
STACK CFI 1ba7a .cfa: $rsp 56 +
STACK CFI 1ba7b $r12: .cfa -48 + ^ $r13: .cfa -40 + ^ $r14: .cfa -32 + ^ $r15: .cfa -24 + ^ $rbp: .cfa -16 + ^ $rbx: .cfa -56 + ^ .cfa: $rsp 64 +
STACK CFI INIT 1bc20 201 .cfa: $rsp 8 + .ra: .cfa -8 + ^
STACK CFI 1bc21 .cfa: $rsp 16 +
STACK CFI 1bc23 .cfa: $rsp 24 +
STACK CFI 1bc25 .cfa: $rsp 32 +
STACK CFI 1bc27 .cfa: $rsp 40 +
STACK CFI 1bc29 .cfa: $rsp 48 +
STACK CFI 1bc2a .cfa: $rsp 56 +
STACK CFI 1bc2b $r12: .cfa -48 + ^ $r13: .cfa -40 + ^ $r14: .cfa -32 + ^ $r15: .cfa -24 + ^ $rbp: .cfa -16 + ^ $rbx: .cfa -56 + ^ .cfa: $rsp 64 +
STACK CFI INIT 1be30 3c .cfa: $rsp 8 + .ra: .cfa -8 + ^
STACK CFI 1be31 .cfa: $rsp 16 +
STACK CFI INIT 1be70 209 .cfa: $rsp 8 + .ra: .cfa -8 + ^
STACK CFI 1be71 .cfa: $rsp 16 +
STACK CFI 1be73 .cfa: $rsp 24 +
STACK CFI 1be75 .cfa: $rsp 32 +
STACK CFI 1be77 .cfa: $rsp 40 +
STACK CFI 1be79 .cfa: $rsp 48 +
STACK CFI 1be7a .cfa: $rsp 56 +
STACK CFI 1be7e $r12: .cfa -48 + ^ $r13: .cfa -40 + ^ $r14: .cfa -32 + ^ $r15: .cfa -24 + ^ $rbp: .cfa -16 + ^ $rbx: .cfa -56 + ^ .cfa: $rsp 80 +
STACK CFI INIT 1c080 3c .cfa: $rsp 8 + .ra: .cfa -8 + ^
STACK CFI 1c081 .cfa: $rsp 16 +
STACK CFI INIT 1c0c0 286 .cfa: $rsp 8 + .ra: .cfa -8 + ^
STACK CFI 1c0c1 .cfa: $rsp 16 +
STACK CFI 1c0c3 .cfa: $rsp 24 +
STACK CFI 1c0c5 .cfa: $rsp 32 +
STACK CFI 1c0c7 .cfa: $rsp 40 +
STACK CFI 1c0c9 .cfa: $rsp 48 +
STACK CFI 1c0ca .cfa: $rsp 56 +
STACK CFI 1c0ce $r12: .cfa -48 + ^ $r13: .cfa -40 + ^ $r14: .cfa -32 + ^ $r15: .cfa -24 + ^ $rbp: .cfa -16 + ^ $rbx: .cfa -56 + ^ .cfa: $rsp 80 +
STACK CFI INIT 1c350 26d .cfa: $rsp 8 + .ra: .cfa -8 + ^
STACK CFI 1c351 .cfa: $rsp 16 +
STACK CFI 1c353 .cfa: $rsp 24 +
STACK CFI 1c355 .cfa: $rsp 32 +
STACK CFI 1c357 .cfa: $rsp 40 +
STACK CFI 1c359 .cfa: $rsp 48 +
STACK CFI 1c35a .cfa: $rsp 56 +
STACK CFI 1c35e $r12: .cfa -48 + ^ $r13: .cfa -40 + ^ $r14: .cfa -32 + ^ $r15: .cfa -24 + ^ $rbp: .cfa -16 + ^ $rbx: .cfa -56 + ^ .cfa: $rsp 112 +
STACK CFI INIT 1c5c0 d9 .cfa: $rsp 8 + .ra: .cfa -8 + ^
STACK CFI 1c5c1 .cfa: $rsp 16 +
STACK CFI 1c5c8 $rbx: .cfa -16 + ^ .cfa: $rsp 224 +
STACK CFI INIT 1c6a0 1c2 .cfa: $rsp 8 + .ra: .cfa -8 + ^
STACK CFI 1c6a1 .cfa: $rsp 16 +
STACK CFI 1c6a3 .cfa: $rsp 24 +
STACK CFI 1c6a5 .cfa: $rsp 32 +
STACK CFI 1c6a7 .cfa: $rsp 40 +
STACK CFI 1c6a9 .cfa: $rsp 48 +
STACK CFI 1c6aa .cfa: $rsp 56 +
STACK CFI 1c6b1 $r12: .cfa -48 + ^ $r13: .cfa -40 + ^ $r14: .cfa -32 + ^ $r15: .cfa -24 + ^ $rbp: .cfa -16 + ^ $rbx: .cfa -56 + ^ .cfa: $rsp 1136 +
STACK CFI INIT 1c870 c8 .cfa: $rsp 8 + .ra: .cfa -8 + ^
STACK CFI 1c871 .cfa: $rsp 16 +
STACK CFI 1c873 .cfa: $rsp 24 +
STACK CFI 1c875 .cfa: $rsp 32 +
STACK CFI 1c877 .cfa: $rsp 40 +
STACK CFI 1c879 .cfa: $rsp 48 +
STACK CFI 1c87a .cfa: $rsp 56 +
STACK CFI 1c87e $r12: .cfa -48 + ^ $r13: .cfa -40 + ^ $r14: .cfa -32 + ^ $r15: .cfa -24 + ^ $rbp: .cfa -16 + ^ $rbx: .cfa -56 + ^ .cfa: $rsp 80 +
STACK CFI INIT 1c940 c2 .cfa: $rsp 8 + .ra: .cfa -8 + ^
STACK CFI 1c942 .cfa: $rsp 16 +
STACK CFI 1c944 .cfa: $rsp 24 +
STACK CFI 1c946 .cfa: $rsp 32 +
STACK CFI 1c948 .cfa: $rsp 40 +
STACK CFI 1c949 .cfa: $rsp 48 +
STACK CFI 1c94d $r12: .cfa -40 + ^ $r13: .cfa -32 + ^ $r14: .cfa -24 + ^ $r15: .cfa -16 + ^ $rbx: .cfa -48 + ^ .cfa: $rsp 64 +
STACK CFI INIT 1ca10 c8 .cfa: $rsp 8 + .ra: .cfa -8 + ^
STACK CFI 1ca11 .cfa: $rsp 16 +
STACK CFI 1ca13 .cfa: $rsp 24 +
STACK CFI 1ca15 .cfa: $rsp 32 +
STACK CFI 1ca17 .cfa: $rsp 40 +
STACK CFI 1ca19 .cfa: $rsp 48 +
STACK CFI 1ca1a .cfa: $rsp 56 +
STACK CFI 1ca1e $r12: .cfa -48 + ^ $r13: .cfa -40 + ^ $r14: .cfa -32 + ^ $r15: .cfa -24 + ^ $rbp: .cfa -16 + ^ $rbx: .cfa -56 + ^ .cfa: $rsp 80 +
STACK CFI INIT 1cae0 c2 .cfa: $rsp 8 + .ra: .cfa -8 + ^
STACK CFI 1cae2 .cfa: $rsp 16 +
STACK CFI 1cae4 .cfa: $rsp 24 +
STACK CFI 1cae6 .cfa: $rsp 32 +
STACK CFI 1cae8 .cfa: $rsp 40 +
STACK CFI 1cae9 .cfa: $rsp 48 +
STACK CFI 1caed $r12: .cfa -40 + ^ $r13: .cfa -32 + ^ $r14: .cfa -24 + ^ $r15: .cfa -16 + ^ $rbx: .cfa -48 + ^ .cfa: $rsp 64 +
STACK CFI INIT 1cbb0 a2 .cfa: $rsp 8 + .ra: .cfa -8 + ^
STACK CFI 1cbb1 .cfa: $rsp 16 +
STACK CFI 1cbb3 .cfa: $rsp 24 +
STACK CFI 1cbb5 .cfa: $rsp 32 +
STACK CFI 1cbb7 .cfa: $rsp 40 +
STACK CFI 1cbb9 .cfa: $rsp 48 +
STACK CFI 1cbba .cfa: $rsp 56 +
STACK CFI 1cbbb $r12: .cfa -48 + ^ $r13: .cfa -40 + ^ $r14: .cfa -32 + ^ $r15: .cfa -24 + ^ $rbp: .cfa -16 + ^ $rbx: .cfa -56 + ^ .cfa: $rsp 64 +
STACK CFI INIT 1cc60 54 .cfa: $rsp 8 + .ra: .cfa -8 + ^
STACK CFI 1cc62 .cfa: $rsp 16 +
STACK CFI 1cc63 .cfa: $rsp 24 +
STACK CFI 1cc64 $r14: .cfa -16 + ^ $rbx: .cfa -24 + ^ .cfa: $rsp 32 +
STACK CFI INIT 1ccc0 ed .cfa: $rsp 8 + .ra: .cfa -8 + ^
STACK CFI 1ccc2 .cfa: $rsp 16 +
STACK CFI 1ccc4 .cfa: $rsp 24 +
STACK CFI 1ccc5 .cfa: $rsp 32 +
STACK CFI 1cccc $r14: .cfa -24 + ^ $r15: .cfa -16 + ^ $rbx: .cfa -32 + ^ .cfa: $rsp 320 +
STACK CFI INIT 1cdb0 72 .cfa: $rsp 8 + .ra: .cfa -8 + ^
STACK CFI 1cdb1 .cfa: $rsp 16 +
STACK CFI INIT 1ce30 75 .cfa: $rsp 8 + .ra: .cfa -8 + ^
STACK CFI 1ce31 .cfa: $rsp 16 +
STACK CFI INIT 1ceb0 73 .cfa: $rsp 8 + .ra: .cfa -8 + ^
STACK CFI 1ceb1 .cfa: $rsp 16 +
STACK CFI INIT 1cf30 119 .cfa: $rsp 8 + .ra: .cfa -8 + ^
STACK CFI 1cf31 .cfa: $rsp 16 +
STACK CFI 1cf33 .cfa: $rsp 24 +
STACK CFI 1cf34 .cfa: $rsp 32 +
STACK CFI 1cf38 $r14: .cfa -24 + ^ $rbp: .cfa -16 + ^ $rbx: .cfa -32 + ^ .cfa: $rsp 48 +
STACK CFI INIT 1d050 a6 .cfa: $rsp 8 + .ra: .cfa -8 + ^
STACK CFI 1d051 .cfa: $rsp 16 +
STACK CFI INIT 1d100 154 .cfa: $rsp 8 + .ra: .cfa -8 + ^
STACK CFI 1d101 .cfa: $rsp 16 +
STACK CFI 1d103 .cfa: $rsp 24 +
STACK CFI 1d105 .cfa: $rsp 32 +
STACK CFI 1d106 .cfa: $rsp 40 +
STACK CFI 1d107 $r14: .cfa -32 + ^ $r15: .cfa -24 + ^ $rbp: .cfa -16 + ^ $rbx: .cfa -40 + ^ .cfa: $rsp 48 +
STACK CFI INIT 1d260 dc .cfa: $rsp 8 + .ra: .cfa -8 + ^
STACK CFI 1d261 .cfa: $rsp 16 +
STACK CFI 1d263 .cfa: $rsp 24 +
STACK CFI 1d265 .cfa: $rsp 32 +
STACK CFI 1d266 .cfa: $rsp 40 +
STACK CFI 1d267 $r14: .cfa -32 + ^ $r15: .cfa -24 + ^ $rbp: .cfa -16 + ^ $rbx: .cfa -40 + ^ .cfa: $rsp 48 +
STACK CFI INIT 1d340 295 .cfa: $rsp 8 + .ra: .cfa -8 + ^
STACK CFI 1d342 .cfa: $rsp 16 +
STACK CFI 1d343 .cfa: $rsp 24 +
STACK CFI 1d344 $r14: .cfa -16 + ^ $rbx: .cfa -24 + ^ .cfa: $rsp 32 +
STACK CFI INIT 1d5e0 66 .cfa: $rsp 8 + .ra: .cfa -8 + ^
STACK CFI 1d5e1 .cfa: $rsp 16 +
STACK CFI INIT 1d650 47 .cfa: $rsp 8 + .ra: .cfa -8 + ^
STACK CFI 1d651 .cfa: $rsp 16 +
STACK CFI INIT 1d6a0 4f .cfa: $rsp 8 + .ra: .cfa -8 + ^
STACK CFI 1d6a1 .cfa: $rsp 16 +
STACK CFI INIT 1d6f0 3c .cfa: $rsp 8 + .ra: .cfa -8 + ^
STACK CFI 1d6f1 .cfa: $rsp 16 +
STACK CFI 1d6f5 $rbx: .cfa -16 + ^ .cfa: $rsp 32 +
STACK CFI INIT 1d730 3c .cfa: $rsp 8 + .ra: .cfa -8 + ^
STACK CFI 1d731 .cfa: $rsp 16 +
STACK CFI 1d735 $rbx: .cfa -16 + ^ .cfa: $rsp 32 +
STACK CFI INIT 1d770 156 .cfa: $rsp 8 + .ra: .cfa -8 + ^
STACK CFI 1d771 .cfa: $rsp 16 +
STACK CFI INIT 1d8d0 71 .cfa: $rsp 8 + .ra: .cfa -8 + ^
STACK CFI 1d8d1 .cfa: $rsp 16 +
STACK CFI 1d8d5 $rbx: .cfa -16 + ^ .cfa: $rsp 80 +
STACK CFI INIT 1d950 27 .cfa: $rsp 8 + .ra: .cfa -8 + ^
STACK CFI 1d951 .cfa: $rsp 16 +
STACK CFI INIT 1d980 27 .cfa: $rsp 8 + .ra: .cfa -8 + ^
STACK CFI 1d981 .cfa: $rsp 16 +
STACK CFI INIT 1d9b0 27 .cfa: $rsp 8 + .ra: .cfa -8 + ^
STACK CFI 1d9b1 .cfa: $rsp 16 +
STACK CFI INIT 1d9e0 28 .cfa: $rsp 8 + .ra: .cfa -8 + ^
STACK CFI 1d9e1 .cfa: $rsp 16 +
STACK CFI INIT 1da10 27 .cfa: $rsp 8 + .ra: .cfa -8 + ^
STACK CFI 1da11 .cfa: $rsp 16 +
STACK CFI INIT 1da40 2b .cfa: $rsp 8 + .ra: .cfa -8 + ^
STACK CFI 1da41 .cfa: $rsp 16 +
STACK CFI INIT 1da70 2b .cfa: $rsp 8 + .ra: .cfa -8 + ^
STACK CFI 1da71 .cfa: $rsp 16 +
STACK CFI INIT 1daa0 28 .cfa: $rsp 8 + .ra: .cfa -8 + ^
STACK CFI 1daa1 .cfa: $rsp 16 +
STACK CFI INIT 1dad0 31 .cfa: $rsp 8 + .ra: .cfa -8 + ^
STACK CFI 1dad1 .cfa: $rsp 16 +
STACK CFI INIT 1db10 2e .cfa: $rsp 8 + .ra: .cfa -8 + ^
STACK CFI 1db11 .cfa: $rsp 16 +
STACK CFI INIT 1db40 70 .cfa: $rsp 8 + .ra: .cfa -8 + ^
STACK CFI 1db41 .cfa: $rsp 16 +
STACK CFI INIT 1dbb0 2e .cfa: $rsp 8 + .ra: .cfa -8 + ^
STACK CFI 1dbb1 .cfa: $rsp 16 +
STACK CFI INIT 1dbe0 27 .cfa: $rsp 8 + .ra: .cfa -8 + ^
STACK CFI 1dbe1 .cfa: $rsp 16 +
STACK CFI INIT 1dc10 49 .cfa: $rsp 8 + .ra: .cfa -8 + ^
STACK CFI 1dc11 .cfa: $rsp 16 +
STACK CFI INIT 1dc60 2c .cfa: $rsp 8 + .ra: .cfa -8 + ^
STACK CFI 1dc61 .cfa: $rsp 16 +
STACK CFI INIT 1dc90 1d4 .cfa: $rsp 8 + .ra: .cfa -8 + ^
STACK CFI 1dc91 .cfa: $rsp 16 +
STACK CFI 1dc93 .cfa: $rsp 24 +
STACK CFI 1dc94 .cfa: $rsp 32 +
STACK CFI 1dc98 $r14: .cfa -24 + ^ $rbp: .cfa -16 + ^ $rbx: .cfa -32 + ^ .cfa: $rsp 48 +
STACK CFI INIT 1de70 1d4 .cfa: $rsp 8 + .ra: .cfa -8 + ^
STACK CFI 1de71 .cfa: $rsp 16 +
STACK CFI 1de73 .cfa: $rsp 24 +
STACK CFI 1de74 .cfa: $rsp 32 +
STACK CFI 1de78 $r14: .cfa -24 + ^ $rbp: .cfa -16 + ^ $rbx: .cfa -32 + ^ .cfa: $rsp 48 +
STACK CFI INIT 1e050 173 .cfa: $rsp 8 + .ra: .cfa -8 + ^
STACK CFI 1e051 .cfa: $rsp 16 +
STACK CFI INIT 1e1d0 27 .cfa: $rsp 8 + .ra: .cfa -8 + ^
STACK CFI 1e1d1 .cfa: $rsp 16 +
STACK CFI INIT 1e200 47 .cfa: $rsp 8 + .ra: .cfa -8 + ^
STACK CFI 1e201 .cfa: $rsp 16 +
STACK CFI INIT 1e250 28 .cfa: $rsp 8 + .ra: .cfa -8 + ^
STACK CFI 1e251 .cfa: $rsp 16 +
STACK CFI INIT 1e280 42 .cfa: $rsp 8 + .ra: .cfa -8 + ^
STACK CFI 1e281 .cfa: $rsp 16 +
STACK CFI INIT 1e2d0 32 .cfa: $rsp 8 + .ra: .cfa -8 + ^
STACK CFI 1e2d1 .cfa: $rsp 16 +
STACK CFI INIT 1e310 3c .cfa: $rsp 8 + .ra: .cfa -8 + ^
STACK CFI 1e311 .cfa: $rsp 16 +
STACK CFI INIT 1e350 49 .cfa: $rsp 8 + .ra: .cfa -8 + ^
STACK CFI 1e351 .cfa: $rsp 16 +
STACK CFI INIT 1e3a0 49 .cfa: $rsp 8 + .ra: .cfa -8 + ^
STACK CFI 1e3a1 .cfa: $rsp 16 +
STACK CFI INIT 1e3f0 49 .cfa: $rsp 8 + .ra: .cfa -8 + ^
STACK CFI 1e3f1 .cfa: $rsp 16 +
STACK CFI INIT 1e440 49 .cfa: $rsp 8 + .ra: .cfa -8 + ^
STACK CFI 1e441 .cfa: $rsp 16 +
STACK CFI INIT 1e490 49 .cfa: $rsp 8 + .ra: .cfa -8 + ^
STACK CFI 1e491 .cfa: $rsp 16 +
STACK CFI INIT 1e4e0 49 .cfa: $rsp 8 + .ra: .cfa -8 + ^
STACK CFI 1e4e1 .cfa: $rsp 16 +
STACK CFI INIT 1e530 55 .cfa: $rsp 8 + .ra: .cfa -8 + ^
STACK CFI 1e531 .cfa: $rsp 16 +
STACK CFI INIT 1e590 126 .cfa: $rsp 8 + .ra: .cfa -8 + ^
STACK CFI 1e591 .cfa: $rsp 16 +
STACK CFI 1e593 .cfa: $rsp 24 +
STACK CFI 1e595 .cfa: $rsp 32 +
STACK CFI 1e597 .cfa: $rsp 40 +
STACK CFI 1e599 .cfa: $rsp 48 +
STACK CFI 1e59a .cfa: $rsp 56 +
STACK CFI 1e59b $r12: .cfa -48 + ^ $r13: .cfa -40 + ^ $r14: .cfa -32 + ^ $r15: .cfa -24 + ^ $rbp: .cfa -16 + ^ $rbx: .cfa -56 + ^ .cfa: $rsp 64 +
STACK CFI INIT 1e6c0 28 .cfa: $rsp 8 + .ra: .cfa -8 + ^
STACK CFI 1e6c1 .cfa: $rsp 16 +
STACK CFI INIT 1e6f0 45 .cfa: $rsp 8 + .ra: .cfa -8 + ^
STACK CFI 1e6f1 .cfa: $rsp 16 +
STACK CFI INIT 1e740 1b5 .cfa: $rsp 8 + .ra: .cfa -8 + ^
STACK CFI 1e741 .cfa: $rsp 16 +
STACK CFI 1e743 .cfa: $rsp 24 +
STACK CFI 1e745 .cfa: $rsp 32 +
STACK CFI 1e747 .cfa: $rsp 40 +
STACK CFI 1e749 .cfa: $rsp 48 +
STACK CFI 1e74a .cfa: $rsp 56 +
STACK CFI 1e74e $r12: .cfa -48 + ^ $r13: .cfa -40 + ^ $r14: .cfa -32 + ^ $r15: .cfa -24 + ^ $rbp: .cfa -16 + ^ $rbx: .cfa -56 + ^ .cfa: $rsp 96 +
STACK CFI INIT 1e900 7e .cfa: $rsp 8 + .ra: .cfa -8 + ^
STACK CFI 1e902 .cfa: $rsp 16 +
STACK CFI 1e903 .cfa: $rsp 24 +
STACK CFI 1e904 $r14: .cfa -16 + ^ $rbx: .cfa -24 + ^ .cfa: $rsp 32 +
STACK CFI INIT 1e980 39 .cfa: $rsp 8 + .ra: .cfa -8 + ^
STACK CFI 1e981 .cfa: $rsp 16 +
STACK CFI INIT 1e9c0 39 .cfa: $rsp 8 + .ra: .cfa -8 + ^
STACK CFI 1e9c1 .cfa: $rsp 16 +
STACK CFI INIT 1ea00 c8 .cfa: $rsp 8 + .ra: .cfa -8 + ^
STACK CFI 1ea01 .cfa: $rsp 16 +
STACK CFI 1ea03 .cfa: $rsp 24 +
STACK CFI 1ea05 .cfa: $rsp 32 +
STACK CFI 1ea07 .cfa: $rsp 40 +
STACK CFI 1ea09 .cfa: $rsp 48 +
STACK CFI 1ea0a .cfa: $rsp 56 +
STACK CFI 1ea0b $r12: .cfa -48 + ^ $r13: .cfa -40 + ^ $r14: .cfa -32 + ^ $r15: .cfa -24 + ^ $rbp: .cfa -16 + ^ $rbx: .cfa -56 + ^ .cfa: $rsp 64 +
STACK CFI INIT 1ead0 f1 .cfa: $rsp 8 + .ra: .cfa -8 + ^
STACK CFI 1ead2 .cfa: $rsp 16 +
STACK CFI 1ead4 .cfa: $rsp 24 +
STACK CFI 1ead6 .cfa: $rsp 32 +
STACK CFI 1ead8 .cfa: $rsp 40 +
STACK CFI 1ead9 .cfa: $rsp 48 +
STACK CFI 1eadd $r12: .cfa -40 + ^ $r13: .cfa -32 + ^ $r14: .cfa -24 + ^ $r15: .cfa -16 + ^ $rbx: .cfa -48 + ^ .cfa: $rsp 64 +
STACK CFI INIT 1ebd0 101 .cfa: $rsp 8 + .ra: .cfa -8 + ^
STACK CFI 1ebd1 .cfa: $rsp 16 +
STACK CFI 1ebd3 .cfa: $rsp 24 +
STACK CFI 1ebd5 .cfa: $rsp 32 +
STACK CFI 1ebd7 .cfa: $rsp 40 +
STACK CFI 1ebd9 .cfa: $rsp 48 +
STACK CFI 1ebda .cfa: $rsp 56 +
STACK CFI 1ebdb $r12: .cfa -48 + ^ $r13: .cfa -40 + ^ $r14: .cfa -32 + ^ $r15: .cfa -24 + ^ $rbp: .cfa -16 + ^ $rbx: .cfa -56 + ^ .cfa: $rsp 64 +
STACK CFI INIT 1ece0 101 .cfa: $rsp 8 + .ra: .cfa -8 + ^
STACK CFI 1ece1 .cfa: $rsp 16 +
STACK CFI 1ece3 .cfa: $rsp 24 +
STACK CFI 1ece5 .cfa: $rsp 32 +
STACK CFI 1ece7 .cfa: $rsp 40 +
STACK CFI 1ece9 .cfa: $rsp 48 +
STACK CFI 1ecea .cfa: $rsp 56 +
STACK CFI 1eceb $r12: .cfa -48 + ^ $r13: .cfa -40 + ^ $r14: .cfa -32 + ^ $r15: .cfa -24 + ^ $rbp: .cfa -16 + ^ $rbx: .cfa -56 + ^ .cfa: $rsp 64 +
STACK CFI INIT 1edf0 c5 .cfa: $rsp 8 + .ra: .cfa -8 + ^
STACK CFI 1edf1 .cfa: $rsp 16 +
STACK CFI 1edf3 .cfa: $rsp 24 +
STACK CFI 1edf5 .cfa: $rsp 32 +
STACK CFI 1edf7 .cfa: $rsp 40 +
STACK CFI 1edf9 .cfa: $rsp 48 +
STACK CFI 1edfa .cfa: $rsp 56 +
STACK CFI 1edfb $r12: .cfa -48 + ^ $r13: .cfa -40 + ^ $r14: .cfa -32 + ^ $r15: .cfa -24 + ^ $rbp: .cfa -16 + ^ $rbx: .cfa -56 + ^ .cfa: $rsp 64 +
STACK CFI INIT 1eec0 db .cfa: $rsp 8 + .ra: .cfa -8 + ^
STACK CFI 1eec2 .cfa: $rsp 16 +
STACK CFI 1eec4 .cfa: $rsp 24 +
STACK CFI 1eec6 .cfa: $rsp 32 +
STACK CFI 1eec8 .cfa: $rsp 40 +
STACK CFI 1eec9 .cfa: $rsp 48 +
STACK CFI 1eecd $r12: .cfa -40 + ^ $r13: .cfa -32 + ^ $r14: .cfa -24 + ^ $r15: .cfa -16 + ^ $rbx: .cfa -48 + ^ .cfa: $rsp 64 +
STACK CFI INIT 1efa0 1d4 .cfa: $rsp 8 + .ra: .cfa -8 + ^
STACK CFI 1efa1 .cfa: $rsp 16 +
STACK CFI 1efa3 .cfa: $rsp 24 +
STACK CFI 1efa4 .cfa: $rsp 32 +
STACK CFI 1efa8 $r14: .cfa -24 + ^ $rbp: .cfa -16 + ^ $rbx: .cfa -32 + ^ .cfa: $rsp 48 +
STACK CFI INIT 1f180 63 .cfa: $rsp 8 + .ra: .cfa -8 + ^
STACK CFI 1f181 .cfa: $rsp 16 +
STACK CFI INIT 1f1f0 c5 .cfa: $rsp 8 + .ra: .cfa -8 + ^
STACK CFI 1f1f1 .cfa: $rsp 16 +
STACK CFI 1f1f3 .cfa: $rsp 24 +
STACK CFI 1f1f5 .cfa: $rsp 32 +
STACK CFI 1f1f7 .cfa: $rsp 40 +
STACK CFI 1f1f9 .cfa: $rsp 48 +
STACK CFI 1f1fa .cfa: $rsp 56 +
STACK CFI 1f1fb $r12: .cfa -48 + ^ $r13: .cfa -40 + ^ $r14: .cfa -32 + ^ $r15: .cfa -24 + ^ $rbp: .cfa -16 + ^ $rbx: .cfa -56 + ^ .cfa: $rsp 64 +
STACK CFI INIT 1f2c0 b2 .cfa: $rsp 8 + .ra: .cfa -8 + ^
STACK CFI 1f2c1 .cfa: $rsp 16 +
STACK CFI 1f2c3 .cfa: $rsp 24 +
STACK CFI 1f2c5 .cfa: $rsp 32 +
STACK CFI 1f2c7 .cfa: $rsp 40 +
STACK CFI 1f2c9 .cfa: $rsp 48 +
STACK CFI 1f2ca .cfa: $rsp 56 +
STACK CFI 1f2cb $r12: .cfa -48 + ^ $r13: .cfa -40 + ^ $r14: .cfa -32 + ^ $r15: .cfa -24 + ^ $rbp: .cfa -16 + ^ $rbx: .cfa -56 + ^ .cfa: $rsp 64 +
STACK CFI INIT 1f380 27 .cfa: $rsp 8 + .ra: .cfa -8 + ^
STACK CFI 1f381 .cfa: $rsp 16 +
STACK CFI INIT 1f3b0 2e .cfa: $rsp 8 + .ra: .cfa -8 + ^
STACK CFI 1f3b1 .cfa: $rsp 16 +
STACK CFI INIT 1f3e0 87 .cfa: $rsp 8 + .ra: .cfa -8 + ^
STACK CFI 1f3e1 .cfa: $rsp 16 +
STACK CFI INIT 1f470 49 .cfa: $rsp 8 + .ra: .cfa -8 + ^
STACK CFI 1f471 .cfa: $rsp 16 +
STACK CFI INIT 1f4c0 39 .cfa: $rsp 8 + .ra: .cfa -8 + ^
STACK CFI 1f4c1 .cfa: $rsp 16 +
STACK CFI 1f4c5 $rbx: .cfa -16 + ^ .cfa: $rsp 32 +
STACK CFI INIT 1f500 39 .cfa: $rsp 8 + .ra: .cfa -8 + ^
STACK CFI 1f501 .cfa: $rsp 16 +
STACK CFI 1f505 $rbx: .cfa -16 + ^ .cfa: $rsp 32 +
STACK CFI INIT 1f540 52 .cfa: $rsp 8 + .ra: .cfa -8 + ^
STACK CFI 1f541 .cfa: $rsp 16 +
STACK CFI INIT 1f5a0 52 .cfa: $rsp 8 + .ra: .cfa -8 + ^
STACK CFI 1f5a1 .cfa: $rsp 16 +
STACK CFI INIT 1f600 73 .cfa: $rsp 8 + .ra: .cfa -8 + ^
STACK CFI 1f601 .cfa: $rsp 16 +
STACK CFI 1f602 .cfa: $rsp 24 +
STACK CFI 1f603 $rbp: .cfa -16 + ^ $rbx: .cfa -24 + ^ .cfa: $rsp 32 +
STACK CFI INIT 1f680 1f8 .cfa: $rsp 8 + .ra: .cfa -8 + ^
STACK CFI 1f681 .cfa: $rsp 16 +
STACK CFI 1f683 .cfa: $rsp 24 +
STACK CFI 1f684 .cfa: $rsp 32 +
STACK CFI 1f688 $r14: .cfa -24 + ^ $rbp: .cfa -16 + ^ $rbx: .cfa -32 + ^ .cfa: $rsp 48 +
STACK CFI INIT 1f880 c9 .cfa: $rsp 8 + .ra: .cfa -8 + ^
STACK CFI 1f882 .cfa: $rsp 16 +
STACK CFI 1f883 .cfa: $rsp 24 +
STACK CFI 1f884 $r14: .cfa -16 + ^ $rbx: .cfa -24 + ^ .cfa: $rsp 32 +
STACK CFI INIT 1f950 34 .cfa: $rsp 8 + .ra: .cfa -8 + ^
STACK CFI 1f951 .cfa: $rsp 16 +
STACK CFI INIT 1f990 48 .cfa: $rsp 8 + .ra: .cfa -8 + ^
STACK CFI 1f991 .cfa: $rsp 16 +
STACK CFI 1f995 $rbx: .cfa -16 + ^ .cfa: $rsp 32 +
STACK CFI INIT 1f9e0 38 .cfa: $rsp 8 + .ra: .cfa -8 + ^
STACK CFI 1f9e1 .cfa: $rsp 16 +
STACK CFI INIT 1fa20 27 .cfa: $rsp 8 + .ra: .cfa -8 + ^
STACK CFI 1fa21 .cfa: $rsp 16 +
STACK CFI INIT 1fa50 2e .cfa: $rsp 8 + .ra: .cfa -8 + ^
STACK CFI 1fa51 .cfa: $rsp 16 +
STACK CFI INIT 1fa80 34 .cfa: $rsp 8 + .ra: .cfa -8 + ^
STACK CFI 1fa81 .cfa: $rsp 16 +
STACK CFI INIT 1fac0 34 .cfa: $rsp 8 + .ra: .cfa -8 + ^
STACK CFI 1fac1 .cfa: $rsp 16 +
STACK CFI INIT 1fb00 2d .cfa: $rsp 8 + .ra: .cfa -8 + ^
STACK CFI 1fb01 .cfa: $rsp 16 +
STACK CFI INIT 1fb30 2d .cfa: $rsp 8 + .ra: .cfa -8 + ^
STACK CFI 1fb31 .cfa: $rsp 16 +
STACK CFI INIT 1fb60 27 .cfa: $rsp 8 + .ra: .cfa -8 + ^
STACK CFI 1fb61 .cfa: $rsp 16 +
STACK CFI INIT 1fb90 2e .cfa: $rsp 8 + .ra: .cfa -8 + ^
STACK CFI 1fb91 .cfa: $rsp 16 +
STACK CFI INIT 1fbc0 34 .cfa: $rsp 8 + .ra: .cfa -8 + ^
STACK CFI 1fbc1 .cfa: $rsp 16 +
STACK CFI INIT 1fc00 2d .cfa: $rsp 8 + .ra: .cfa -8 + ^
STACK CFI 1fc01 .cfa: $rsp 16 +
STACK CFI INIT 1fc30 20a .cfa: $rsp 8 + .ra: .cfa -8 + ^
STACK CFI 1fc31 .cfa: $rsp 16 +
STACK CFI 1fc33 .cfa: $rsp 24 +
STACK CFI 1fc35 .cfa: $rsp 32 +
STACK CFI 1fc37 .cfa: $rsp 40 +
STACK CFI 1fc38 .cfa: $rsp 48 +
STACK CFI 1fc3c $r12: .cfa -40 + ^ $r14: .cfa -32 + ^ $r15: .cfa -24 + ^ $rbp: .cfa -16 + ^ $rbx: .cfa -48 + ^ .cfa: $rsp 64 +
STACK CFI INIT 1fe40 1fc .cfa: $rsp 8 + .ra: .cfa -8 + ^
STACK CFI 1fe41 .cfa: $rsp 16 +
STACK CFI 1fe43 .cfa: $rsp 24 +
STACK CFI 1fe45 .cfa: $rsp 32 +
STACK CFI 1fe47 .cfa: $rsp 40 +
STACK CFI 1fe48 .cfa: $rsp 48 +
STACK CFI 1fe4c $r12: .cfa -40 + ^ $r14: .cfa -32 + ^ $r15: .cfa -24 + ^ $rbp: .cfa -16 + ^ $rbx: .cfa -48 + ^ .cfa: $rsp 64 +
STACK CFI INIT 20040 d6 .cfa: $rsp 8 + .ra: .cfa -8 + ^
STACK CFI 20042 .cfa: $rsp 16 +
STACK CFI 20044 .cfa: $rsp 24 +
STACK CFI 20046 .cfa: $rsp 32 +
STACK CFI 20047 .cfa: $rsp 40 +
STACK CFI 20048 $r12: .cfa -32 + ^ $r14: .cfa -24 + ^ $r15: .cfa -16 + ^ $rbx: .cfa -40 + ^ .cfa: $rsp 48 +
STACK CFI INIT 20120 24 .cfa: $rsp 8 + .ra: .cfa -8 + ^
STACK CFI 20121 .cfa: $rsp 16 +
STACK CFI INIT 20150 165 .cfa: $rsp 8 + .ra: .cfa -8 + ^
STACK CFI 20152 .cfa: $rsp 16 +
STACK CFI 20154 .cfa: $rsp 24 +
STACK CFI 20156 .cfa: $rsp 32 +
STACK CFI 20158 .cfa: $rsp 40 +
STACK CFI 20159 .cfa: $rsp 48 +
STACK CFI 2015d $r12: .cfa -40 + ^ $r13: .cfa -32 + ^ $r14: .cfa -24 + ^ $r15: .cfa -16 + ^ $rbx: .cfa -48 + ^ .cfa: $rsp 64 +
STACK CFI INIT 202c0 2c .cfa: $rsp 8 + .ra: .cfa -8 + ^
STACK CFI 202c1 .cfa: $rsp 16 +
STACK CFI INIT 202f0 2b .cfa: $rsp 8 + .ra: .cfa -8 + ^
STACK CFI 202f1 .cfa: $rsp 16 +
STACK CFI INIT 20320 2b .cfa: $rsp 8 + .ra: .cfa -8 + ^
STACK CFI 20321 .cfa: $rsp 16 +
STACK CFI INIT 20350 42 .cfa: $rsp 8 + .ra: .cfa -8 + ^
STACK CFI 20351 .cfa: $rsp 16 +
STACK CFI INIT 203a0 42 .cfa: $rsp 8 + .ra: .cfa -8 + ^
STACK CFI 203a1 .cfa: $rsp 16 +
STACK CFI INIT 203f0 27 .cfa: $rsp 8 + .ra: .cfa -8 + ^
STACK CFI 203f1 .cfa: $rsp 16 +
STACK CFI INIT 20420 27 .cfa: $rsp 8 + .ra: .cfa -8 + ^
STACK CFI 20421 .cfa: $rsp 16 +
STACK CFI INIT 20450 33 .cfa: $rsp 8 + .ra: .cfa -8 + ^
STACK CFI 20451 .cfa: $rsp 16 +
STACK CFI INIT 20490 33 .cfa: $rsp 8 + .ra: .cfa -8 + ^
STACK CFI 20491 .cfa: $rsp 16 +
STACK CFI INIT 204d0 a0 .cfa: $rsp 8 + .ra: .cfa -8 + ^
STACK CFI 204d2 .cfa: $rsp 16 +
STACK CFI 204d3 .cfa: $rsp 24 +
STACK CFI 204d4 $r14: .cfa -16 + ^ $rbx: .cfa -24 + ^ .cfa: $rsp 32 +
STACK CFI INIT 20570 a0 .cfa: $rsp 8 + .ra: .cfa -8 + ^
STACK CFI 20572 .cfa: $rsp 16 +
STACK CFI 20573 .cfa: $rsp 24 +
STACK CFI 20574 $r14: .cfa -16 + ^ $rbx: .cfa -24 + ^ .cfa: $rsp 32 +
STACK CFI INIT 20610 d4 .cfa: $rsp 8 + .ra: .cfa -8 + ^
STACK CFI 20612 .cfa: $rsp 16 +
STACK CFI 20613 .cfa: $rsp 24 +
STACK CFI 20614 $r14: .cfa -16 + ^ $rbx: .cfa -24 + ^ .cfa: $rsp 32 +
STACK CFI INIT 206f0 d4 .cfa: $rsp 8 + .ra: .cfa -8 + ^
STACK CFI 206f2 .cfa: $rsp 16 +
STACK CFI 206f3 .cfa: $rsp 24 +
STACK CFI 206f4 $r14: .cfa -16 + ^ $rbx: .cfa -24 + ^ .cfa: $rsp 32 +
STACK CFI INIT 207d0 90 .cfa: $rsp 8 + .ra: .cfa -8 + ^
STACK CFI 207d1 .cfa: $rsp 16 +
STACK CFI 207d3 .cfa: $rsp 24 +
STACK CFI 207d5 .cfa: $rsp 32 +
STACK CFI 207d6 .cfa: $rsp 40 +
STACK CFI 207d7 $r14: .cfa -32 + ^ $r15: .cfa -24 + ^ $rbp: .cfa -16 + ^ $rbx: .cfa -40 + ^ .cfa: $rsp 48 +
STACK CFI INIT 20860 8d .cfa: $rsp 8 + .ra: .cfa -8 + ^
STACK CFI 20861 .cfa: $rsp 16 +
STACK CFI 20863 .cfa: $rsp 24 +
STACK CFI 20865 .cfa: $rsp 32 +
STACK CFI 20866 .cfa: $rsp 40 +
STACK CFI 20867 $r14: .cfa -32 + ^ $r15: .cfa -24 + ^ $rbp: .cfa -16 + ^ $rbx: .cfa -40 + ^ .cfa: $rsp 48 +
STACK CFI INIT 208f0 c0 .cfa: $rsp 8 + .ra: .cfa -8 + ^
STACK CFI 208f2 .cfa: $rsp 16 +
STACK CFI 208f3 .cfa: $rsp 24 +
STACK CFI 208f4 $r14: .cfa -16 + ^ $rbx: .cfa -24 + ^ .cfa: $rsp 32 +
STACK CFI INIT 209b0 c0 .cfa: $rsp 8 + .ra: .cfa -8 + ^
STACK CFI 209b2 .cfa: $rsp 16 +
STACK CFI 209b3 .cfa: $rsp 24 +
STACK CFI 209b4 $r14: .cfa -16 + ^ $rbx: .cfa -24 + ^ .cfa: $rsp 32 +
STACK CFI INIT 20a70 a2 .cfa: $rsp 8 + .ra: .cfa -8 + ^
STACK CFI 20a72 .cfa: $rsp 16 +
STACK CFI 20a73 .cfa: $rsp 24 +
STACK CFI 20a74 $r14: .cfa -16 + ^ $rbx: .cfa -24 + ^ .cfa: $rsp 32 +
STACK CFI INIT 20b20 d8 .cfa: $rsp 8 + .ra: .cfa -8 + ^
STACK CFI 20b22 .cfa: $rsp 16 +
STACK CFI 20b23 .cfa: $rsp 24 +
STACK CFI 20b24 $r14: .cfa -16 + ^ $rbx: .cfa -24 + ^ .cfa: $rsp 32 +
STACK CFI INIT 20c00 24c .cfa: $rsp 8 + .ra: .cfa -8 + ^
STACK CFI 20c01 .cfa: $rsp 16 +
STACK CFI 20c03 .cfa: $rsp 24 +
STACK CFI 20c05 .cfa: $rsp 32 +
STACK CFI 20c07 .cfa: $rsp 40 +
STACK CFI 20c08 .cfa: $rsp 48 +
STACK CFI 20c0c $r12: .cfa -40 + ^ $r14: .cfa -32 + ^ $r15: .cfa -24 + ^ $rbp: .cfa -16 + ^ $rbx: .cfa -48 + ^ .cfa: $rsp 64 +
STACK CFI INIT 20e50 c0 .cfa: $rsp 8 + .ra: .cfa -8 + ^
STACK CFI 20e52 .cfa: $rsp 16 +
STACK CFI 20e53 .cfa: $rsp 24 +
STACK CFI 20e54 $r14: .cfa -16 + ^ $rbx: .cfa -24 + ^ .cfa: $rsp 32 +
STACK CFI INIT 20f10 c9 .cfa: $rsp 8 + .ra: .cfa -8 + ^
STACK CFI 20f12 .cfa: $rsp 16 +
STACK CFI 20f13 .cfa: $rsp 24 +
STACK CFI 20f14 $r14: .cfa -16 + ^ $rbx: .cfa -24 + ^ .cfa: $rsp 32 +
STACK CFI INIT 20fe0 69 .cfa: $rsp 8 + .ra: .cfa -8 + ^
STACK CFI 20fe1 .cfa: $rsp 16 +
STACK CFI INIT 21050 272 .cfa: $rsp 8 + .ra: .cfa -8 + ^
STACK CFI 21051 .cfa: $rsp 16 +
STACK CFI 21053 .cfa: $rsp 24 +
STACK CFI 21055 .cfa: $rsp 32 +
STACK CFI 21057 .cfa: $rsp 40 +
STACK CFI 21059 .cfa: $rsp 48 +
STACK CFI 2105a .cfa: $rsp 56 +
STACK CFI 2105e $r12: .cfa -48 + ^ $r13: .cfa -40 + ^ $r14: .cfa -32 + ^ $r15: .cfa -24 + ^ $rbp: .cfa -16 + ^ $rbx: .cfa -56 + ^ .cfa: $rsp 80 +
STACK CFI INIT 212d0 38 .cfa: $rsp 8 + .ra: .cfa -8 + ^
STACK CFI 212d1 .cfa: $rsp 16 +
STACK CFI INIT 21310 250 .cfa: $rsp 8 + .ra: .cfa -8 + ^
STACK CFI 21311 .cfa: $rsp 16 +
STACK CFI 21313 .cfa: $rsp 24 +
STACK CFI 21315 .cfa: $rsp 32 +
STACK CFI 21317 .cfa: $rsp 40 +
STACK CFI 21318 .cfa: $rsp 48 +
STACK CFI 2131c $r12: .cfa -40 + ^ $r14: .cfa -32 + ^ $r15: .cfa -24 + ^ $rbp: .cfa -16 + ^ $rbx: .cfa -48 + ^ .cfa: $rsp 64 +
STACK CFI INIT 21560 25e .cfa: $rsp 8 + .ra: .cfa -8 + ^
STACK CFI 21561 .cfa: $rsp 16 +
STACK CFI 21563 .cfa: $rsp 24 +
STACK CFI 21565 .cfa: $rsp 32 +
STACK CFI 21567 .cfa: $rsp 40 +
STACK CFI 21569 .cfa: $rsp 48 +
STACK CFI 2156a .cfa: $rsp 56 +
STACK CFI 2156b $r12: .cfa -48 + ^ $r13: .cfa -40 + ^ $r14: .cfa -32 + ^ $r15: .cfa -24 + ^ $rbp: .cfa -16 + ^ $rbx: .cfa -56 + ^ .cfa: $rsp 64 +
STACK CFI INIT 217c0 64 .cfa: $rsp 8 + .ra: .cfa -8 + ^
STACK CFI 217c1 .cfa: $rsp 16 +
STACK CFI INIT 21830 5b .cfa: $rsp 8 + .ra: .cfa -8 + ^
STACK CFI 21831 .cfa: $rsp 16 +
STACK CFI INIT 21890 59 .cfa: $rsp 8 + .ra: .cfa -8 + ^
STACK CFI 21891 .cfa: $rsp 16 +
STACK CFI INIT 218f0 60 .cfa: $rsp 8 + .ra: .cfa -8 + ^
STACK CFI 218f1 .cfa: $rsp 16 +
STACK CFI INIT 21950 8d .cfa: $rsp 8 + .ra: .cfa -8 + ^
STACK CFI 21951 .cfa: $rsp 16 +
STACK CFI INIT 219e0 76 .cfa: $rsp 8 + .ra: .cfa -8 + ^
STACK CFI 219e1 .cfa: $rsp 16 +
STACK CFI INIT 21a60 267 .cfa: $rsp 8 + .ra: .cfa -8 + ^
STACK CFI 21a61 .cfa: $rsp 16 +
STACK CFI 21a63 .cfa: $rsp 24 +
STACK CFI 21a65 .cfa: $rsp 32 +
STACK CFI 21a67 .cfa: $rsp 40 +
STACK CFI 21a68 .cfa: $rsp 48 +
STACK CFI 21a6c $r12: .cfa -40 + ^ $r14: .cfa -32 + ^ $r15: .cfa -24 + ^ $rbp: .cfa -16 + ^ $rbx: .cfa -48 + ^ .cfa: $rsp 64 +
STACK CFI INIT 21cd0 eb .cfa: $rsp 8 + .ra: .cfa -8 + ^
STACK CFI 21cd1 .cfa: $rsp 16 +
STACK CFI 21cd3 .cfa: $rsp 24 +
STACK CFI 21cd5 .cfa: $rsp 32 +
STACK CFI 21cd7 .cfa: $rsp 40 +
STACK CFI 21cd8 .cfa: $rsp 48 +
STACK CFI 21cdc $r12: .cfa -40 + ^ $r14: .cfa -32 + ^ $r15: .cfa -24 + ^ $rbp: .cfa -16 + ^ $rbx: .cfa -48 + ^ .cfa: $rsp 64 +
STACK CFI INIT 21dc0 b2 .cfa: $rsp 8 + .ra: .cfa -8 + ^
STACK CFI 21dc2 .cfa: $rsp 16 +
STACK CFI 21dc3 .cfa: $rsp 24 +
STACK CFI 21dc4 $r14: .cfa -16 + ^ $rbx: .cfa -24 + ^ .cfa: $rsp 32 +
STACK CFI INIT 21e80 84 .cfa: $rsp 8 + .ra: .cfa -8 + ^
STACK CFI 21e82 .cfa: $rsp 16 +
STACK CFI 21e83 .cfa: $rsp 24 +
STACK CFI 21e84 $r14: .cfa -16 + ^ $rbx: .cfa -24 + ^ .cfa: $rsp 32 +
STACK CFI INIT 21f10 ad .cfa: $rsp 8 + .ra: .cfa -8 + ^
STACK CFI 21f12 .cfa: $rsp 16 +
STACK CFI 21f14 .cfa: $rsp 24 +
STACK CFI 21f15 .cfa: $rsp 32 +
STACK CFI 21f19 $r14: .cfa -24 + ^ $r15: .cfa -16 + ^ $rbx: .cfa -32 + ^ .cfa: $rsp 48 +
STACK CFI INIT 21fc0 3a .cfa: $rsp 8 + .ra: .cfa -8 + ^
STACK CFI 21fc1 .cfa: $rsp 16 +
STACK CFI INIT 22000 67 .cfa: $rsp 8 + .ra: .cfa -8 + ^
STACK CFI 22001 .cfa: $rsp 16 +
STACK CFI INIT 22070 a2 .cfa: $rsp 8 + .ra: .cfa -8 + ^
STACK CFI 22071 .cfa: $rsp 16 +
STACK CFI 22075 $rbx: .cfa -16 + ^ .cfa: $rsp 32 +
STACK CFI INIT 22120 81 .cfa: $rsp 8 + .ra: .cfa -8 + ^
STACK CFI 22121 .cfa: $rsp 16 +
STACK CFI INIT 221b0 274 .cfa: $rsp 8 + .ra: .cfa -8 + ^
STACK CFI 221b1 .cfa: $rsp 16 +
STACK CFI 221b3 .cfa: $rsp 24 +
STACK CFI 221b5 .cfa: $rsp 32 +
STACK CFI 221b7 .cfa: $rsp 40 +
STACK CFI 221b8 .cfa: $rsp 48 +
STACK CFI 221bc $r12: .cfa -40 + ^ $r14: .cfa -32 + ^ $r15: .cfa -24 + ^ $rbp: .cfa -16 + ^ $rbx: .cfa -48 + ^ .cfa: $rsp 64 +
STACK CFI INIT 22430 70 .cfa: $rsp 8 + .ra: .cfa -8 + ^
STACK CFI 22431 .cfa: $rsp 16 +
STACK CFI INIT 224a0 69 .cfa: $rsp 8 + .ra: .cfa -8 + ^
STACK CFI 224a1 .cfa: $rsp 16 +
STACK CFI INIT 22510 8d .cfa: $rsp 8 + .ra: .cfa -8 + ^
STACK CFI 22511 .cfa: $rsp 16 +
STACK CFI INIT 225a0 6f .cfa: $rsp 8 + .ra: .cfa -8 + ^
STACK CFI 225a1 .cfa: $rsp 16 +
STACK CFI INIT 22610 6f .cfa: $rsp 8 + .ra: .cfa -8 + ^
STACK CFI 22611 .cfa: $rsp 16 +
STACK CFI INIT 22680 6f .cfa: $rsp 8 + .ra: .cfa -8 + ^
STACK CFI 22681 .cfa: $rsp 16 +
STACK CFI INIT 226f0 6f .cfa: $rsp 8 + .ra: .cfa -8 + ^
STACK CFI 226f1 .cfa: $rsp 16 +
STACK CFI INIT 22760 69 .cfa: $rsp 8 + .ra: .cfa -8 + ^
STACK CFI 22761 .cfa: $rsp 16 +
STACK CFI INIT 227d0 97 .cfa: $rsp 8 + .ra: .cfa -8 + ^
STACK CFI 227d1 .cfa: $rsp 16 +
STACK CFI 227d5 $rbx: .cfa -16 + ^ .cfa: $rsp 32 +
STACK CFI INIT 22870 12f .cfa: $rsp 8 + .ra: .cfa -8 + ^
STACK CFI 22874 .cfa: $rsp 32 +
STACK CFI INIT 229a0 27 .cfa: $rsp 8 + .ra: .cfa -8 + ^
STACK CFI 229a1 .cfa: $rsp 16 +
STACK CFI INIT 229d0 27 .cfa: $rsp 8 + .ra: .cfa -8 + ^
STACK CFI 229d1 .cfa: $rsp 16 +
STACK CFI INIT 22a00 27 .cfa: $rsp 8 + .ra: .cfa -8 + ^
STACK CFI 22a01 .cfa: $rsp 16 +
STACK CFI INIT 22a30 f9 .cfa: $rsp 8 + .ra: .cfa -8 + ^
STACK CFI 22a32 .cfa: $rsp 16 +
STACK CFI 22a33 .cfa: $rsp 24 +
STACK CFI 22a34 $r14: .cfa -16 + ^ $rbx: .cfa -24 + ^ .cfa: $rsp 32 +
STACK CFI INIT 22b30 fa .cfa: $rsp 8 + .ra: .cfa -8 + ^
STACK CFI 22b31 .cfa: $rsp 16 +
STACK CFI 22b35 $rbx: .cfa -16 + ^ .cfa: $rsp 32 +
STACK CFI INIT 22c30 109 .cfa: $rsp 8 + .ra: .cfa -8 + ^
STACK CFI 22c32 .cfa: $rsp 16 +
STACK CFI 22c33 .cfa: $rsp 24 +
STACK CFI 22c34 $r14: .cfa -16 + ^ $rbx: .cfa -24 + ^ .cfa: $rsp 32 +
STACK CFI INIT 22d40 6a .cfa: $rsp 8 + .ra: .cfa -8 + ^
STACK CFI 22d41 .cfa: $rsp 16 +
STACK CFI INIT 22db0 9a .cfa: $rsp 8 + .ra: .cfa -8 + ^
STACK CFI 22db1 .cfa: $rsp 16 +
STACK CFI INIT 22e50 9a .cfa: $rsp 8 + .ra: .cfa -8 + ^
STACK CFI 22e51 .cfa: $rsp 16 +
STACK CFI INIT 22ef0 ba .cfa: $rsp 8 + .ra: .cfa -8 + ^
STACK CFI 22ef1 .cfa: $rsp 16 +
STACK CFI INIT 22fb0 6b .cfa: $rsp 8 + .ra: .cfa -8 + ^
STACK CFI 22fb1 .cfa: $rsp 16 +
STACK CFI INIT 23020 96 .cfa: $rsp 8 + .ra: .cfa -8 + ^
STACK CFI 23021 .cfa: $rsp 16 +
STACK CFI INIT 230c0 96 .cfa: $rsp 8 + .ra: .cfa -8 + ^
STACK CFI 230c1 .cfa: $rsp 16 +
STACK CFI INIT 23160 b6 .cfa: $rsp 8 + .ra: .cfa -8 + ^
STACK CFI 23161 .cfa: $rsp 16 +
STACK CFI INIT 23220 6a .cfa: $rsp 8 + .ra: .cfa -8 + ^
STACK CFI 23221 .cfa: $rsp 16 +
STACK CFI INIT 23290 a6 .cfa: $rsp 8 + .ra: .cfa -8 + ^
STACK CFI 23291 .cfa: $rsp 16 +
STACK CFI INIT 23340 a6 .cfa: $rsp 8 + .ra: .cfa -8 + ^
STACK CFI 23341 .cfa: $rsp 16 +
STACK CFI INIT 233f0 c6 .cfa: $rsp 8 + .ra: .cfa -8 + ^
STACK CFI 233f1 .cfa: $rsp 16 +
STACK CFI INIT 234c0 6b .cfa: $rsp 8 + .ra: .cfa -8 + ^
STACK CFI 234c1 .cfa: $rsp 16 +
STACK CFI INIT 23530 9b .cfa: $rsp 8 + .ra: .cfa -8 + ^
STACK CFI 23531 .cfa: $rsp 16 +
STACK CFI INIT 235d0 9b .cfa: $rsp 8 + .ra: .cfa -8 + ^
STACK CFI 235d1 .cfa: $rsp 16 +
STACK CFI INIT 23670 bb .cfa: $rsp 8 + .ra: .cfa -8 + ^
STACK CFI 23671 .cfa: $rsp 16 +
STACK CFI INIT 23730 5a .cfa: $rsp 8 + .ra: .cfa -8 + ^
STACK CFI 23731 .cfa: $rsp 16 +
STACK CFI INIT 23790 ab .cfa: $rsp 8 + .ra: .cfa -8 + ^
STACK CFI 23791 .cfa: $rsp 16 +
STACK CFI INIT 23840 9b .cfa: $rsp 8 + .ra: .cfa -8 + ^
STACK CFI 23841 .cfa: $rsp 16 +
STACK CFI INIT 238e0 bb .cfa: $rsp 8 + .ra: .cfa -8 + ^
STACK CFI 238e1 .cfa: $rsp 16 +
STACK CFI INIT 239a0 5b .cfa: $rsp 8 + .ra: .cfa -8 + ^
STACK CFI 239a1 .cfa: $rsp 16 +
STACK CFI INIT 23a00 104 .cfa: $rsp 8 + .ra: .cfa -8 + ^
STACK CFI 23a01 .cfa: $rsp 16 +
STACK CFI 23a03 .cfa: $rsp 24 +
STACK CFI 23a05 .cfa: $rsp 32 +
STACK CFI 23a07 .cfa: $rsp 40 +
STACK CFI 23a09 .cfa: $rsp 48 +
STACK CFI 23a0a .cfa: $rsp 56 +
STACK CFI 23a0b $r12: .cfa -48 + ^ $r13: .cfa -40 + ^ $r14: .cfa -32 + ^ $r15: .cfa -24 + ^ $rbp: .cfa -16 + ^ $rbx: .cfa -56 + ^ .cfa: $rsp 64 +
STACK CFI INIT 23b10 92 .cfa: $rsp 8 + .ra: .cfa -8 + ^
STACK CFI 23b11 .cfa: $rsp 16 +
STACK CFI INIT 23bb0 cd .cfa: $rsp 8 + .ra: .cfa -8 + ^
STACK CFI 23bb1 .cfa: $rsp 16 +
STACK CFI INIT 23c80 f9 .cfa: $rsp 8 + .ra: .cfa -8 + ^
STACK CFI 23c81 .cfa: $rsp 16 +
STACK CFI INIT 23d80 b2 .cfa: $rsp 8 + .ra: .cfa -8 + ^
STACK CFI 23d81 .cfa: $rsp 16 +
STACK CFI INIT 23e40 dd .cfa: $rsp 8 + .ra: .cfa -8 + ^
STACK CFI 23e41 .cfa: $rsp 16 +
STACK CFI INIT 23f20 bd .cfa: $rsp 8 + .ra: .cfa -8 + ^
STACK CFI 23f21 .cfa: $rsp 16 +
STACK CFI INIT 23fe0 65 .cfa: $rsp 8 + .ra: .cfa -8 + ^
STACK CFI 23fe2 $r15: .cfa -16 + ^ .cfa: $rsp 16 +
STACK CFI 23fe4 $r14: .cfa -24 + ^ .cfa: $rsp 24 +
STACK CFI 23fe9 $r13: .cfa -32 + ^ .cfa: $rsp 32 +
STACK CFI 23feb $r12: .cfa -40 + ^ .cfa: $rsp 40 +
STACK CFI 23ff3 $rbp: .cfa -48 + ^ .cfa: $rsp 48 +
STACK CFI 23ffb $rbx: .cfa -56 + ^ .cfa: $rsp 56 +
STACK CFI 24008 .cfa: $rsp 64 +
STACK CFI 2403a .cfa: $rsp 56 +
STACK CFI 2403b .cfa: $rsp 48 +
STACK CFI 2403c .cfa: $rsp 40 +
STACK CFI 2403e .cfa: $rsp 32 +
STACK CFI 24040 .cfa: $rsp 24 +
STACK CFI 24042 .cfa: $rsp 16 +
STACK CFI 24044 .cfa: $rsp 8 +
STACK CFI INIT 24050 2 .cfa: $rsp 8 + .ra: .cfa -8 + ^
